Archive member included because of file (symbol)

libs/gcc/app_start.lib(timer.o)
                              build/gcc/obj/example/example_tcpclient.o (Ql_Timer_Register)
libs/gcc/app_start.lib(gprs.o)
                              build/gcc/obj/example/example_tcpclient.o (Ql_GPRS_GetPDPContextId)
libs/gcc/app_start.lib(ql_func.o)
                              libs/gcc/app_start.lib(timer.o) (m_get_api_ptr)
libs/gcc/app_start.lib(taskMngt.o)
                              build/gcc/obj/example/example_tcpclient.o (Ql_OS_GetMessage)
libs/gcc/app_start.lib(fota.o)
                              build/gcc/obj/custom/dfota/src/dfota_main.o (Ql_DFOTA_Init)
libs/gcc/app_start.lib(ql_main.o)
                              build/gcc/obj/ril/src/ril_network.o (memset)
libs/gcc/app_start.lib(memory.o)
                              build/gcc/obj/ril/src/ril_http.o (Ql_MEM_Alloc)
libs/gcc/app_start.lib(ril_main.o)
                              build/gcc/obj/ril/src/ril_http.o (Ql_RIL_WriteDataToCore)
libs/gcc/app_start.lib(ril_aux.o)
                              build/gcc/obj/custom/config/sys_config.o (proc_urc_task)
libs/gcc/app_start.lib(ocpi_init.o)
                              libs/gcc/app_start.lib(ql_main.o) (_OCPU_InitUserMem)
libs/gcc/app_start.lib(fileSys.o)
                              build/gcc/obj/custom/dfota/src/dfota_ftp.o (Ql_FS_Open)
libs/gcc/app_start.lib(lib_ril_sms.o)
                              build/gcc/obj/ril/src/ril_sms.o (LIB_SMS_IsValidHexStr)
libs/gcc/app_start.lib(stdlib_func.o)
                              build/gcc/obj/ril/src/ril_location.o (Ql_atof)
libs/gcc/app_start.lib(system.o)
                              build/gcc/obj/ril/src/ril_network.o (Ql_Sleep)
libs/gcc/app_start.lib(uart.o)
                              build/gcc/obj/example/example_tcpclient.o (Ql_UART_Register)
libs/gcc/app_start.lib(socket.o)
                              build/gcc/obj/custom/dfota/src/dfota_http.o (Ql_SOC_CreateEx)
C:\CSDTK4\/mips-elf-4.4.2/lib/gcc/mips-elf/4.4.2/libgcc.a(_df_to_si.o)
                              build/gcc/obj/ril/src/Ril_dtmf.o (__fixdfsi)
C:\CSDTK4\/mips-elf-4.4.2/lib/gcc/mips-elf/4.4.2/libgcc.a(_df_to_sf.o)
                              build/gcc/obj/ril/src/ril_location.o (__truncdfsf2)
C:\CSDTK4\/mips-elf-4.4.2/lib/gcc/mips-elf/4.4.2/libgcc.a(_lshrdi3.o)
                              C:\CSDTK4\/mips-elf-4.4.2/lib/gcc/mips-elf/4.4.2/libgcc.a(_df_to_si.o) (__lshrdi3)
C:\CSDTK4\/mips-elf-4.4.2/lib/gcc/mips-elf/4.4.2/libgcc.a(_make_sf.o)
                              C:\CSDTK4\/mips-elf-4.4.2/lib/gcc/mips-elf/4.4.2/libgcc.a(_df_to_sf.o) (__make_fp)
C:\CSDTK4\/mips-elf-4.4.2/lib/gcc/mips-elf/4.4.2/libgcc.a(_unpack_df.o)
                              C:\CSDTK4\/mips-elf-4.4.2/lib/gcc/mips-elf/4.4.2/libgcc.a(_df_to_si.o) (__unpack_d)
C:\CSDTK4\/mips-elf-4.4.2/lib/gcc/mips-elf/4.4.2/libgcc.a(_pack_sf.o)
                              C:\CSDTK4\/mips-elf-4.4.2/lib/gcc/mips-elf/4.4.2/libgcc.a(_make_sf.o) (__pack_f)

Allocating common symbols
Common symbol       size              file

Ql_snprintf         0x4               libs/gcc/app_start.lib(ql_main.o)
Ql_sprintf          0x4               libs/gcc/app_start.lib(ql_main.o)
Ql_Debug_Trace      0x4               libs/gcc/app_start.lib(ql_main.o)
Ql_sscanf           0x4               libs/gcc/app_start.lib(ql_main.o)
Temp_DBGBuffer      0x200             build/gcc/obj/custom/dfota/src/dfota_http_code.o
g_comingCall        0x124             build/gcc/obj/ril/src/ril_telephony.o
Fota_gprsCfg        0xb0              build/gcc/obj/custom/dfota/src/dfota_main.o
loclnfo             0x1c              build/gcc/obj/ril/src/ril_location2.o
Ql_Debug_TraceEx    0x4               libs/gcc/app_start.lib(ql_main.o)
strCCID             0x1e              build/gcc/obj/example/example_tcpclient.o
FotaConfig          0x10              build/gcc/obj/custom/dfota/src/dfota_main.o
arrHttpRcvBuf       0x2800            build/gcc/obj/example/example_tcpclient.o
Ql_vsnprintf        0x4               libs/gcc/app_start.lib(ql_main.o)
rssi                0x4               build/gcc/obj/example/example_tcpclient.o
MQTT_Recvhandler    0x4               libs/gcc/app_start.lib(ril_main.o)
httpMainContext     0x234             build/gcc/obj/custom/dfota/src/dfota_http.o
ber                 0x4               build/gcc/obj/example/example_tcpclient.o

Discarded input sections

 .reginfo       0x0000000000000000       0x18 build/gcc/obj/custom/config/sys_config.o
 .reginfo       0x0000000000000000       0x18 build/gcc/obj/ril/src/ril_audio.o
 .reginfo       0x0000000000000000       0x18 build/gcc/obj/ril/src/ril_custom.o
 .reginfo       0x0000000000000000       0x18 build/gcc/obj/ril/src/ril_http.o
 .reginfo       0x0000000000000000       0x18 build/gcc/obj/ril/src/ril_urc.o
 .reginfo       0x0000000000000000       0x18 build/gcc/obj/ril/src/ril_atResponse.o
 .reginfo       0x0000000000000000       0x18 build/gcc/obj/ril/src/ril_network.o
 .reginfo       0x0000000000000000       0x18 build/gcc/obj/ril/src/ril_location.o
 .reginfo       0x0000000000000000       0x18 build/gcc/obj/ril/src/ril_ntp.o
 .reginfo       0x0000000000000000       0x18 build/gcc/obj/ril/src/ril_telephony.o
 .reginfo       0x0000000000000000       0x18 build/gcc/obj/ril/src/ril_sms.o
 .reginfo       0x0000000000000000       0x18 build/gcc/obj/ril/src/ril_system.o
 .reginfo       0x0000000000000000       0x18 build/gcc/obj/ril/src/Ril_dtmf.o
 .reginfo       0x0000000000000000       0x18 build/gcc/obj/ril/src/ril_sim.o
 .reginfo       0x0000000000000000       0x18 build/gcc/obj/ril/src/ril_location2.o
 .reginfo       0x0000000000000000       0x18 build/gcc/obj/ril/src/ril_init.o
 .reginfo       0x0000000000000000       0x18 build/gcc/obj/ril/src/ril_ftp.o
 .reginfo       0x0000000000000000       0x18 build/gcc/obj/ril/src/ril_alarm.o
 .reginfo       0x0000000000000000       0x18 build/gcc/obj/ril/src/ril_util.o
 .reginfo       0x0000000000000000       0x18 build/gcc/obj/ril/src/ril_mqtt.o
 .reginfo       0x0000000000000000       0x18 build/gcc/obj/example/example_location2.o
 .reginfo       0x0000000000000000       0x18 build/gcc/obj/example/example_dfota_ftp.o
 .reginfo       0x0000000000000000       0x18 build/gcc/obj/example/example_sms.o
 .reginfo       0x0000000000000000       0x18 build/gcc/obj/example/example_tcp_demo.o
 .reginfo       0x0000000000000000       0x18 build/gcc/obj/example/example_spi.o
 .reginfo       0x0000000000000000       0x18 build/gcc/obj/example/example_system.o
 .reginfo       0x0000000000000000       0x18 build/gcc/obj/example/example_tcpclient.o
 .reginfo       0x0000000000000000       0x18 build/gcc/obj/example/example_http.o
 .reginfo       0x0000000000000000       0x18 build/gcc/obj/example/example_dfota_http.o
 .reginfo       0x0000000000000000       0x18 build/gcc/obj/example/example_ftp.o
 .reginfo       0x0000000000000000       0x18 build/gcc/obj/example/example_float_math.o
 .reginfo       0x0000000000000000       0x18 build/gcc/obj/example/example_call.o
 .reginfo       0x0000000000000000       0x18 build/gcc/obj/example/example_memory.o
 .reginfo       0x0000000000000000       0x18 build/gcc/obj/example/example_udpserver.o
 .reginfo       0x0000000000000000       0x18 build/gcc/obj/example/example_multitask.o
 .reginfo       0x0000000000000000       0x18 build/gcc/obj/example/example_gpio.o
 .reginfo       0x0000000000000000       0x18 build/gcc/obj/example/example_adc.o
 .reginfo       0x0000000000000000       0x18 build/gcc/obj/example/debug.o
 .reginfo       0x0000000000000000       0x18 build/gcc/obj/example/example_clk.o
 .reginfo       0x0000000000000000       0x18 build/gcc/obj/example/example_transpass.o
 .reginfo       0x0000000000000000       0x18 build/gcc/obj/example/example_alarm.o
 .reginfo       0x0000000000000000       0x18 build/gcc/obj/example/example_multitask_port.o
 .reginfo       0x0000000000000000       0x18 build/gcc/obj/example/example_time.o
 .reginfo       0x0000000000000000       0x18 build/gcc/obj/example/example_watchdog.o
 .reginfo       0x0000000000000000       0x18 build/gcc/obj/example/example_timer.o
 .reginfo       0x0000000000000000       0x18 build/gcc/obj/example/example_udpclient.o
 .reginfo       0x0000000000000000       0x18 build/gcc/obj/example/example_mqtt.o
 .reginfo       0x0000000000000000       0x18 build/gcc/obj/example/example_audio.o
 .reginfo       0x0000000000000000       0x18 build/gcc/obj/example/example_tcpserver.o
 .reginfo       0x0000000000000000       0x18 build/gcc/obj/example/example_eint.o
 .reginfo       0x0000000000000000       0x18 build/gcc/obj/example/example_file.o
 .reginfo       0x0000000000000000       0x18 build/gcc/obj/example/example_iic.o
 .reginfo       0x0000000000000000       0x18 build/gcc/obj/example/example_location.o
 .reginfo       0x0000000000000000       0x18 build/gcc/obj/custom/main.o
 .reginfo       0x0000000000000000       0x18 build/gcc/obj/custom/dfota/src/dfota_main.o
 .reginfo       0x0000000000000000       0x18 build/gcc/obj/custom/dfota/src/dfota_ftp.o
 .reginfo       0x0000000000000000       0x18 build/gcc/obj/custom/dfota/src/dfota_http_code.o
 .reginfo       0x0000000000000000       0x18 build/gcc/obj/custom/dfota/src/dfota_http.o
 .reginfo       0x0000000000000000       0x18 libs/gcc/app_start.lib(timer.o)
 .reginfo       0x0000000000000000       0x18 libs/gcc/app_start.lib(gprs.o)
 .reginfo       0x0000000000000000       0x18 libs/gcc/app_start.lib(ql_func.o)
 .reginfo       0x0000000000000000       0x18 libs/gcc/app_start.lib(taskMngt.o)
 .reginfo       0x0000000000000000       0x18 libs/gcc/app_start.lib(fota.o)
 .reginfo       0x0000000000000000       0x18 libs/gcc/app_start.lib(ql_main.o)
 .reginfo       0x0000000000000000       0x18 libs/gcc/app_start.lib(memory.o)
 .reginfo       0x0000000000000000       0x18 libs/gcc/app_start.lib(ril_main.o)
 .reginfo       0x0000000000000000       0x18 libs/gcc/app_start.lib(ril_aux.o)
 .reginfo       0x0000000000000000       0x18 libs/gcc/app_start.lib(ocpi_init.o)
 .reginfo       0x0000000000000000       0x18 libs/gcc/app_start.lib(fileSys.o)
 .reginfo       0x0000000000000000       0x18 libs/gcc/app_start.lib(lib_ril_sms.o)
 .reginfo       0x0000000000000000       0x18 libs/gcc/app_start.lib(stdlib_func.o)
 .reginfo       0x0000000000000000       0x18 libs/gcc/app_start.lib(system.o)
 .reginfo       0x0000000000000000       0x18 libs/gcc/app_start.lib(uart.o)
 .reginfo       0x0000000000000000       0x18 libs/gcc/app_start.lib(socket.o)
 .reginfo       0x0000000000000000       0x18 C:\CSDTK4\/mips-elf-4.4.2/lib/gcc/mips-elf/4.4.2/libgcc.a(_df_to_si.o)
 .reginfo       0x0000000000000000       0x18 C:\CSDTK4\/mips-elf-4.4.2/lib/gcc/mips-elf/4.4.2/libgcc.a(_df_to_sf.o)
 .reginfo       0x0000000000000000       0x18 C:\CSDTK4\/mips-elf-4.4.2/lib/gcc/mips-elf/4.4.2/libgcc.a(_lshrdi3.o)
 .reginfo       0x0000000000000000       0x18 C:\CSDTK4\/mips-elf-4.4.2/lib/gcc/mips-elf/4.4.2/libgcc.a(_make_sf.o)
 .reginfo       0x0000000000000000       0x18 C:\CSDTK4\/mips-elf-4.4.2/lib/gcc/mips-elf/4.4.2/libgcc.a(_unpack_df.o)
 .reginfo       0x0000000000000000       0x18 C:\CSDTK4\/mips-elf-4.4.2/lib/gcc/mips-elf/4.4.2/libgcc.a(_pack_sf.o)

Memory Configuration

Name             Origin             Length             Attributes
*default*        0x0000000000000000 0xffffffffffffffff

Linker script and memory map

                0x0000000088310000                __ROM_START_ADDR = 0x88310000
                0x0000000000050000                __MAX_ROM_SIZE = 0x50000
                0x00000000823e7000                __RAM_START_ADDR = 0x823e7000
                0x0000000082400000                __RAM_END_ADDR = 0x82400000
                0x0000000088310000                . = __ROM_START_ADDR
                0x0000000088310000                _ROM_START = .

.initdata       0x0000000088310000       0x40
 *(.initdata)
 .initdata      0x0000000088310000       0x3c libs/gcc/app_start.lib(ql_main.o)
                0x0000000088310000                GADLENTRY
                0x0000000088310040                . = ALIGN (0x10)
 *fill*         0x000000008831003c        0x4 00

.text           0x0000000088310040      0x270
 *(.text)
 .text          0x0000000088310040        0x0 build/gcc/obj/custom/config/custom_sys_cfg.o
 .text          0x0000000088310040        0x0 build/gcc/obj/custom/config/sys_config.o
 .text          0x0000000088310040        0x0 build/gcc/obj/ril/src/ril_audio.o
 .text          0x0000000088310040        0x0 build/gcc/obj/ril/src/ril_custom.o
 .text          0x0000000088310040        0x0 build/gcc/obj/ril/src/ril_http.o
 .text          0x0000000088310040        0x0 build/gcc/obj/ril/src/ril_urc.o
 .text          0x0000000088310040        0x0 build/gcc/obj/ril/src/ril_atResponse.o
 .text          0x0000000088310040        0x0 build/gcc/obj/ril/src/ril_network.o
 .text          0x0000000088310040        0x0 build/gcc/obj/ril/src/ril_location.o
 .text          0x0000000088310040        0x0 build/gcc/obj/ril/src/ril_ntp.o
 .text          0x0000000088310040        0x0 build/gcc/obj/ril/src/ril_telephony.o
 .text          0x0000000088310040        0x0 build/gcc/obj/ril/src/ril_sms.o
 .text          0x0000000088310040        0x0 build/gcc/obj/ril/src/ril_system.o
 .text          0x0000000088310040        0x0 build/gcc/obj/ril/src/Ril_dtmf.o
 .text          0x0000000088310040        0x0 build/gcc/obj/ril/src/ril_sim.o
 .text          0x0000000088310040        0x0 build/gcc/obj/ril/src/ril_location2.o
 .text          0x0000000088310040        0x0 build/gcc/obj/ril/src/ril_init.o
 .text          0x0000000088310040        0x0 build/gcc/obj/ril/src/ril_ftp.o
 .text          0x0000000088310040        0x0 build/gcc/obj/ril/src/ril_alarm.o
 .text          0x0000000088310040        0x0 build/gcc/obj/ril/src/ril_util.o
 .text          0x0000000088310040        0x0 build/gcc/obj/ril/src/ril_mqtt.o
 .text          0x0000000088310040        0x0 build/gcc/obj/example/example_location2.o
 .text          0x0000000088310040        0x0 build/gcc/obj/example/example_dfota_ftp.o
 .text          0x0000000088310040        0x0 build/gcc/obj/example/example_sms.o
 .text          0x0000000088310040        0x0 build/gcc/obj/example/example_tcp_demo.o
 .text          0x0000000088310040        0x0 build/gcc/obj/example/example_spi.o
 .text          0x0000000088310040        0x0 build/gcc/obj/example/example_system.o
 .text          0x0000000088310040        0x0 build/gcc/obj/example/example_tcpclient.o
 .text          0x0000000088310040        0x0 build/gcc/obj/example/example_http.o
 .text          0x0000000088310040        0x0 build/gcc/obj/example/example_dfota_http.o
 .text          0x0000000088310040        0x0 build/gcc/obj/example/example_ftp.o
 .text          0x0000000088310040        0x0 build/gcc/obj/example/example_float_math.o
 .text          0x0000000088310040        0x0 build/gcc/obj/example/example_call.o
 .text          0x0000000088310040        0x0 build/gcc/obj/example/example_memory.o
 .text          0x0000000088310040        0x0 build/gcc/obj/example/example_udpserver.o
 .text          0x0000000088310040        0x0 build/gcc/obj/example/example_multitask.o
 .text          0x0000000088310040        0x0 build/gcc/obj/example/example_gpio.o
 .text          0x0000000088310040        0x0 build/gcc/obj/example/example_adc.o
 .text          0x0000000088310040        0x0 build/gcc/obj/example/debug.o
 .text          0x0000000088310040        0x0 build/gcc/obj/example/example_clk.o
 .text          0x0000000088310040        0x0 build/gcc/obj/example/example_transpass.o
 .text          0x0000000088310040        0x0 build/gcc/obj/example/example_alarm.o
 .text          0x0000000088310040        0x0 build/gcc/obj/example/example_multitask_port.o
 .text          0x0000000088310040        0x0 build/gcc/obj/example/example_time.o
 .text          0x0000000088310040        0x0 build/gcc/obj/example/example_watchdog.o
 .text          0x0000000088310040        0x0 build/gcc/obj/example/example_timer.o
 .text          0x0000000088310040        0x0 build/gcc/obj/example/example_udpclient.o
 .text          0x0000000088310040        0x0 build/gcc/obj/example/example_mqtt.o
 .text          0x0000000088310040        0x0 build/gcc/obj/example/example_audio.o
 .text          0x0000000088310040        0x0 build/gcc/obj/example/example_tcpserver.o
 .text          0x0000000088310040        0x0 build/gcc/obj/example/example_eint.o
 .text          0x0000000088310040        0x0 build/gcc/obj/example/example_file.o
 .text          0x0000000088310040        0x0 build/gcc/obj/example/example_iic.o
 .text          0x0000000088310040        0x0 build/gcc/obj/example/example_location.o
 .text          0x0000000088310040        0x0 build/gcc/obj/custom/main.o
 .text          0x0000000088310040        0x0 build/gcc/obj/custom/dfota/src/dfota_main.o
 .text          0x0000000088310040        0x0 build/gcc/obj/custom/dfota/src/dfota_ftp.o
 .text          0x0000000088310040        0x0 build/gcc/obj/custom/dfota/src/dfota_http_code.o
 .text          0x0000000088310040        0x0 build/gcc/obj/custom/dfota/src/dfota_http.o
 .text          0x0000000088310040        0x0 libs/gcc/app_start.lib(timer.o)
 .text          0x0000000088310040        0x0 libs/gcc/app_start.lib(gprs.o)
 .text          0x0000000088310040        0x0 libs/gcc/app_start.lib(ql_func.o)
 .text          0x0000000088310040        0x0 libs/gcc/app_start.lib(taskMngt.o)
 .text          0x0000000088310040        0x0 libs/gcc/app_start.lib(fota.o)
 .text          0x0000000088310040        0x0 libs/gcc/app_start.lib(ql_main.o)
 .text          0x0000000088310040        0x0 libs/gcc/app_start.lib(memory.o)
 .text          0x0000000088310040        0x0 libs/gcc/app_start.lib(ril_main.o)
 .text          0x0000000088310040        0x0 libs/gcc/app_start.lib(ril_aux.o)
 .text          0x0000000088310040        0x0 libs/gcc/app_start.lib(ocpi_init.o)
 .text          0x0000000088310040        0x0 libs/gcc/app_start.lib(fileSys.o)
 .text          0x0000000088310040        0x0 libs/gcc/app_start.lib(lib_ril_sms.o)
 .text          0x0000000088310040        0x0 libs/gcc/app_start.lib(stdlib_func.o)
 .text          0x0000000088310040        0x0 libs/gcc/app_start.lib(system.o)
 .text          0x0000000088310040        0x0 libs/gcc/app_start.lib(uart.o)
 .text          0x0000000088310040        0x0 libs/gcc/app_start.lib(socket.o)
 .text          0x0000000088310040       0x64 C:\CSDTK4\/mips-elf-4.4.2/lib/gcc/mips-elf/4.4.2/libgcc.a(_df_to_si.o)
                0x0000000088310041                __fixdfsi
 .text          0x00000000883100a4       0x3c C:\CSDTK4\/mips-elf-4.4.2/lib/gcc/mips-elf/4.4.2/libgcc.a(_df_to_sf.o)
                0x00000000883100a5                __truncdfsf2
 .text          0x00000000883100e0       0x3c C:\CSDTK4\/mips-elf-4.4.2/lib/gcc/mips-elf/4.4.2/libgcc.a(_lshrdi3.o)
                0x00000000883100e1                __lshrdi3
 .text          0x000000008831011c       0x18 C:\CSDTK4\/mips-elf-4.4.2/lib/gcc/mips-elf/4.4.2/libgcc.a(_make_sf.o)
                0x000000008831011d                __make_fp
 .text          0x0000000088310134       0xac C:\CSDTK4\/mips-elf-4.4.2/lib/gcc/mips-elf/4.4.2/libgcc.a(_unpack_df.o)
                0x0000000088310135                __unpack_d
 .text          0x00000000883101e0       0xc4 C:\CSDTK4\/mips-elf-4.4.2/lib/gcc/mips-elf/4.4.2/libgcc.a(_pack_sf.o)
                0x00000000883101e1                __pack_f
                0x00000000883102b0                . = ALIGN (0x10)
 *fill*         0x00000000883102a4        0xc 00

.text.Ql_WTD_GetWDIPinCfg
                0x00000000883102b0        0xc
 .text.Ql_WTD_GetWDIPinCfg
                0x00000000883102b0        0xc build/gcc/obj/custom/config/custom_sys_cfg.o
                0x00000000883102b1                Ql_WTD_GetWDIPinCfg

.text.RIL_AUD_RegisterPlayCB
                0x00000000883102bc       0x14
 .text.RIL_AUD_RegisterPlayCB
                0x00000000883102bc       0x14 build/gcc/obj/ril/src/ril_audio.o
                0x00000000883102bd                RIL_AUD_RegisterPlayCB

.text.RIL_AUD_GetRecordState
                0x00000000883102d0       0x5c
 .text.RIL_AUD_GetRecordState
                0x00000000883102d0       0x5c build/gcc/obj/ril/src/ril_audio.o
                0x00000000883102d1                RIL_AUD_GetRecordState

.text.RIL_AUD_StopPlayMemBg
                0x000000008831032c       0x40
 .text.RIL_AUD_StopPlayMemBg
                0x000000008831032c       0x40 build/gcc/obj/ril/src/ril_audio.o
                0x000000008831032d                RIL_AUD_StopPlayMemBg

.text.RIL_AUD_PlayMemBg
                0x000000008831036c       0x68
 .text.RIL_AUD_PlayMemBg
                0x000000008831036c       0x68 build/gcc/obj/ril/src/ril_audio.o
                0x000000008831036d                RIL_AUD_PlayMemBg

.text.RIL_AUD_StopPlayMem
                0x00000000883103d4       0x48
 .text.RIL_AUD_StopPlayMem
                0x00000000883103d4       0x48 build/gcc/obj/ril/src/ril_audio.o
                0x00000000883103d5                RIL_AUD_StopPlayMem

.text.RIL_AUD_PlayMem
                0x000000008831041c       0x68
 .text.RIL_AUD_PlayMem
                0x000000008831041c       0x68 build/gcc/obj/ril/src/ril_audio.o
                0x000000008831041d                RIL_AUD_PlayMem

.text.RIL_AUD_StopRecord
                0x0000000088310484       0x48
 .text.RIL_AUD_StopRecord
                0x0000000088310484       0x48 build/gcc/obj/ril/src/ril_audio.o
                0x0000000088310485                RIL_AUD_StopRecord

.text.RIL_AUD_StartRecord
                0x00000000883104cc       0x78
 .text.RIL_AUD_StartRecord
                0x00000000883104cc       0x78 build/gcc/obj/ril/src/ril_audio.o
                0x00000000883104cd                RIL_AUD_StartRecord

.text.RIL_AUD_StopPlay
                0x0000000088310544       0x48
 .text.RIL_AUD_StopPlay
                0x0000000088310544       0x48 build/gcc/obj/ril/src/ril_audio.o
                0x0000000088310545                RIL_AUD_StopPlay

.text.RIL_AUD_GetVolume
                0x000000008831058c       0x4c
 .text.RIL_AUD_GetVolume
                0x000000008831058c       0x4c build/gcc/obj/ril/src/ril_audio.o
                0x000000008831058d                RIL_AUD_GetVolume

.text.RIL_AUD_SetVolume
                0x00000000883105d8       0x4c
 .text.RIL_AUD_SetVolume
                0x00000000883105d8       0x4c build/gcc/obj/ril/src/ril_audio.o
                0x00000000883105d9                RIL_AUD_SetVolume

.text.RIL_AUD_SetChannel
                0x0000000088310624       0x50
 .text.RIL_AUD_SetChannel
                0x0000000088310624       0x50 build/gcc/obj/ril/src/ril_audio.o
                0x0000000088310625                RIL_AUD_SetChannel

.text.RIL_AUD_GetChannel
                0x0000000088310674       0x4c
 .text.RIL_AUD_GetChannel
                0x0000000088310674       0x4c build/gcc/obj/ril/src/ril_audio.o
                0x0000000088310675                RIL_AUD_GetChannel

.text.RIL_AUD_PlayFile
                0x00000000883106c0       0x88
 .text.RIL_AUD_PlayFile
                0x00000000883106c0       0x88 build/gcc/obj/ril/src/ril_audio.o
                0x00000000883106c1                RIL_AUD_PlayFile

.text.ATResponse_AUD_handler
                0x0000000088310748       0xec
 .text.ATResponse_AUD_handler
                0x0000000088310748       0xec build/gcc/obj/ril/src/ril_audio.o

.text.Ql_RIL_RcvDataFrmCore
                0x0000000088310834       0x18
 .text.Ql_RIL_RcvDataFrmCore
                0x0000000088310834       0x18 build/gcc/obj/ril/src/ril_custom.o
                0x0000000088310835                Ql_RIL_RcvDataFrmCore

.text.RIL_HTTP_ReadResponse
                0x000000008831084c       0x68
 .text.RIL_HTTP_ReadResponse
                0x000000008831084c       0x68 build/gcc/obj/ril/src/ril_http.o
                0x000000008831084d                RIL_HTTP_ReadResponse

.text.RIL_HTTP_RequestToPost
                0x00000000883108b4       0x74
 .text.RIL_HTTP_RequestToPost
                0x00000000883108b4       0x74 build/gcc/obj/ril/src/ril_http.o
                0x00000000883108b5                RIL_HTTP_RequestToPost

.text.RIL_HTTP_RequestToGet
                0x0000000088310928       0x58
 .text.RIL_HTTP_RequestToGet
                0x0000000088310928       0x58 build/gcc/obj/ril/src/ril_http.o
                0x0000000088310929                RIL_HTTP_RequestToGet

.text.RIL_HTTP_SetServerURL
                0x0000000088310980       0x74
 .text.RIL_HTTP_SetServerURL
                0x0000000088310980       0x74 build/gcc/obj/ril/src/ril_http.o
                0x0000000088310981                RIL_HTTP_SetServerURL

.text.RIL_HTTP_DownloadFile
                0x00000000883109f4       0x70
 .text.RIL_HTTP_DownloadFile
                0x00000000883109f4       0x70 build/gcc/obj/ril/src/ril_http.o
                0x00000000883109f5                RIL_HTTP_DownloadFile

.text.ATRsp_QHTTP_Handler
                0x0000000088310a64       0xb8
 .text.ATRsp_QHTTP_Handler
                0x0000000088310a64       0xb8 build/gcc/obj/ril/src/ril_http.o

.text.OnURCHandler_HTTP
                0x0000000088310b1c       0x48
 .text.OnURCHandler_HTTP
                0x0000000088310b1c       0x48 build/gcc/obj/ril/src/ril_urc.o

.text.OnURCHandler_AudPlayInd
                0x0000000088310b64       0x34
 .text.OnURCHandler_AudPlayInd
                0x0000000088310b64       0x34 build/gcc/obj/ril/src/ril_urc.o

.text.Ql_RIL_IsURCStr
                0x0000000088310b98       0x54
 .text.Ql_RIL_IsURCStr
                0x0000000088310b98       0x54 build/gcc/obj/ril/src/ril_urc.o
                0x0000000088310b99                Ql_RIL_IsURCStr

.text.OnURCHandler_MQTT_DISC
                0x0000000088310bec       0xac
 .text.OnURCHandler_MQTT_DISC
                0x0000000088310bec       0xac build/gcc/obj/ril/src/ril_urc.o

.text.OnURCHandler_MQTT_CLOSE
                0x0000000088310c98       0xac
 .text.OnURCHandler_MQTT_CLOSE
                0x0000000088310c98       0xac build/gcc/obj/ril/src/ril_urc.o

.text.OnURCHandler_MQTT_STATE
                0x0000000088310d44       0x8c
 .text.OnURCHandler_MQTT_STATE
                0x0000000088310d44       0x8c build/gcc/obj/ril/src/ril_urc.o

.text.OnURCHandler_MQTT_TUNS
                0x0000000088310dd0       0xac
 .text.OnURCHandler_MQTT_TUNS
                0x0000000088310dd0       0xac build/gcc/obj/ril/src/ril_urc.o

.text.OnURCHandler_MQTT_PUB
                0x0000000088310e7c       0xcc
 .text.OnURCHandler_MQTT_PUB
                0x0000000088310e7c       0xcc build/gcc/obj/ril/src/ril_urc.o

.text.OnURCHandler_MQTT_SUB
                0x0000000088310f48       0xfc
 .text.OnURCHandler_MQTT_SUB
                0x0000000088310f48       0xfc build/gcc/obj/ril/src/ril_urc.o

.text.OnURCHandler_MQTT_CONN
                0x0000000088311044       0xb4
 .text.OnURCHandler_MQTT_CONN
                0x0000000088311044       0xb4 build/gcc/obj/ril/src/ril_urc.o

.text.OnURCHandler_MQTT_OPEN
                0x00000000883110f8       0x8c
 .text.OnURCHandler_MQTT_OPEN
                0x00000000883110f8       0x8c build/gcc/obj/ril/src/ril_urc.o

.text.OnURCHandler_AlarmRing
                0x0000000088311184       0x18
 .text.OnURCHandler_AlarmRing
                0x0000000088311184       0x18 build/gcc/obj/ril/src/ril_urc.o

.text.OnURCHandler_InitStat
                0x000000008831119c       0x3c
 .text.OnURCHandler_InitStat
                0x000000008831119c       0x3c build/gcc/obj/ril/src/ril_urc.o

.text.OnURCHandler
                0x00000000883111d8       0x78
 .text.OnURCHandler
                0x00000000883111d8       0x78 build/gcc/obj/ril/src/ril_urc.o
                0x00000000883111d9                OnURCHandler

.text.OnURCHandler_FTP_Upload
                0x0000000088311250       0x74
 .text.OnURCHandler_FTP_Upload
                0x0000000088311250       0x74 build/gcc/obj/ril/src/ril_urc.o

.text.OnURCHandler_FTP_Download
                0x00000000883112c4       0x74
 .text.OnURCHandler_FTP_Download
                0x00000000883112c4       0x74 build/gcc/obj/ril/src/ril_urc.o

.text.OnURCHandler_CFUN
                0x0000000088311338       0x64
 .text.OnURCHandler_CFUN
                0x0000000088311338       0x64 build/gcc/obj/ril/src/ril_urc.o

.text.OnURCHandler_Voltage
                0x000000008831139c       0x5c
 .text.OnURCHandler_Voltage
                0x000000008831139c       0x5c build/gcc/obj/ril/src/ril_urc.o

.text.OnURCHandler_Network
                0x00000000883113f8       0xd4
 .text.OnURCHandler_Network
                0x00000000883113f8       0xd4 build/gcc/obj/ril/src/ril_urc.o

.text.OnURCHandler_Call
                0x00000000883114cc      0x184
 .text.OnURCHandler_Call
                0x00000000883114cc      0x184 build/gcc/obj/ril/src/ril_urc.o

.text.OnURCHandler_SIM
                0x0000000088311650       0x90
 .text.OnURCHandler_SIM
                0x0000000088311650       0x90 build/gcc/obj/ril/src/ril_urc.o

.text.OnURCHandler_SMS
                0x00000000883116e0       0xac
 .text.OnURCHandler_SMS
                0x00000000883116e0       0xac build/gcc/obj/ril/src/ril_urc.o

.text.Ql_RIL_AT_GetErrCode
                0x000000008831178c        0xc
 .text.Ql_RIL_AT_GetErrCode
                0x000000008831178c        0xc build/gcc/obj/ril/src/ril_atResponse.o
                0x000000008831178d                Ql_RIL_AT_GetErrCode

.text.Ql_RIL_AT_SetErrCode
                0x0000000088311798        0xc
 .text.Ql_RIL_AT_SetErrCode
                0x0000000088311798        0xc build/gcc/obj/ril/src/ril_atResponse.o
                0x0000000088311799                Ql_RIL_AT_SetErrCode

.text.Default_atRsp_callback
                0x00000000883117a4       0x80
 .text.Default_atRsp_callback
                0x00000000883117a4       0x80 build/gcc/obj/ril/src/ril_atResponse.o
                0x00000000883117a5                Default_atRsp_callback

.text.RIL_Parse_value
                0x0000000088311824       0x70
 .text.RIL_Parse_value
                0x0000000088311824       0x70 build/gcc/obj/ril/src/ril_network.o
                0x0000000088311825                RIL_Parse_value

.text.RIL_NW_GetOperator
                0x0000000088311894       0x4c
 .text.RIL_NW_GetOperator
                0x0000000088311894       0x4c build/gcc/obj/ril/src/ril_network.o
                0x0000000088311895                RIL_NW_GetOperator

.text.RIL_NW_ClosePDPContext
                0x00000000883118e0       0x44
 .text.RIL_NW_ClosePDPContext
                0x00000000883118e0       0x44 build/gcc/obj/ril/src/ril_network.o
                0x00000000883118e1                RIL_NW_ClosePDPContext

.text.RIL_NW_GetIPStatus
                0x0000000088311924       0x28
 .text.RIL_NW_GetIPStatus
                0x0000000088311924       0x28 build/gcc/obj/ril/src/ril_network.o
                0x0000000088311925                RIL_NW_GetIPStatus

.text.RIL_NW_GetGPRSState
                0x000000008831194c       0x4c
 .text.RIL_NW_GetGPRSState
                0x000000008831194c       0x4c build/gcc/obj/ril/src/ril_network.o
                0x000000008831194d                RIL_NW_GetGPRSState

.text.RIL_NW_GetGSMState
                0x0000000088311998       0x50
 .text.RIL_NW_GetGSMState
                0x0000000088311998       0x50 build/gcc/obj/ril/src/ril_network.o
                0x0000000088311999                RIL_NW_GetGSMState

.text.ATRsp_COPS_Handler
                0x00000000883119e8       0xa8
 .text.ATRsp_COPS_Handler
                0x00000000883119e8       0xa8 build/gcc/obj/ril/src/ril_network.o

.text.ATRsp_QIDEACT_Hdlr
                0x0000000088311a90       0x40
 .text.ATRsp_QIDEACT_Hdlr
                0x0000000088311a90       0x40 build/gcc/obj/ril/src/ril_network.o

.text.ATResponse_CSQ_Handler
                0x0000000088311ad0       0x70
 .text.ATResponse_CSQ_Handler
                0x0000000088311ad0       0x70 build/gcc/obj/ril/src/ril_network.o

.text.ATResponse_CGREG_Handler
                0x0000000088311b40       0x74
 .text.ATResponse_CGREG_Handler
                0x0000000088311b40       0x74 build/gcc/obj/ril/src/ril_network.o

.text.ATResponse_CREG_Handler
                0x0000000088311bb4       0x74
 .text.ATResponse_CREG_Handler
                0x0000000088311bb4       0x74 build/gcc/obj/ril/src/ril_network.o

.text.RIL_NW_OpenPDPContext
                0x0000000088311c28       0x6c
 .text.RIL_NW_OpenPDPContext
                0x0000000088311c28       0x6c build/gcc/obj/ril/src/ril_network.o
                0x0000000088311c29                RIL_NW_OpenPDPContext

.text.RIL_NW_SetAPN
                0x0000000088311c94       0x90
 .text.RIL_NW_SetAPN
                0x0000000088311c94       0x90 build/gcc/obj/ril/src/ril_network.o
                0x0000000088311c95                RIL_NW_SetAPN

.text.RIL_NW_SetGPRSContext
                0x0000000088311d24       0x4c
 .text.RIL_NW_SetGPRSContext
                0x0000000088311d24       0x4c build/gcc/obj/ril/src/ril_network.o
                0x0000000088311d25                RIL_NW_SetGPRSContext

.text.RIL_NW_GetSignalQuality
                0x0000000088311d70       0x5c
 .text.RIL_NW_GetSignalQuality
                0x0000000088311d70       0x5c build/gcc/obj/ril/src/ril_network.o
                0x0000000088311d71                RIL_NW_GetSignalQuality

.text.RIL_NW_GetIpStatusByName
                0x0000000088311dcc       0xdc
 .text.RIL_NW_GetIpStatusByName
                0x0000000088311dcc       0xdc build/gcc/obj/ril/src/ril_network.o
                0x0000000088311dcd                RIL_NW_GetIpStatusByName

.text.ATResponse_IPStatus_Handler
                0x0000000088311ea8       0xa4
 .text.ATResponse_IPStatus_Handler
                0x0000000088311ea8       0xa4 build/gcc/obj/ril/src/ril_network.o

.text.OnURCHandler_QCELLLocation
                0x0000000088311f4c       0xd0
 .text.OnURCHandler_QCELLLocation
                0x0000000088311f4c       0xd0 build/gcc/obj/ril/src/ril_location.o
                0x0000000088311f4d                OnURCHandler_QCELLLocation

.text.RIL_GetLocationByCell
                0x000000008831201c       0x94
 .text.RIL_GetLocationByCell
                0x000000008831201c       0x94 build/gcc/obj/ril/src/ril_location.o
                0x000000008831201d                RIL_GetLocationByCell

.text.RIL_GetLocation_Ex
                0x00000000883120b0       0x9c
 .text.RIL_GetLocation_Ex
                0x00000000883120b0       0x9c build/gcc/obj/ril/src/ril_location.o
                0x00000000883120b1                RIL_GetLocation_Ex

.text.RIL_GetLocation
                0x000000008831214c       0x84
 .text.RIL_GetLocation
                0x000000008831214c       0x84 build/gcc/obj/ril/src/ril_location.o
                0x000000008831214d                RIL_GetLocation

.text.ATResponse_GetLocation_Ex_Handler
                0x00000000883121d0       0xc0
 .text.ATResponse_GetLocation_Ex_Handler
                0x00000000883121d0       0xc0 build/gcc/obj/ril/src/ril_location.o

.text.RIL_NTP_START
                0x0000000088312290       0x68
 .text.RIL_NTP_START
                0x0000000088312290       0x68 build/gcc/obj/ril/src/ril_ntp.o
                0x0000000088312291                RIL_NTP_START

.text.OnURCHandler_NTPCMD
                0x00000000883122f8       0x44
 .text.OnURCHandler_NTPCMD
                0x00000000883122f8       0x44 build/gcc/obj/ril/src/ril_ntp.o
                0x00000000883122f9                OnURCHandler_NTPCMD

.text.RIL_Telephony_Hangup
                0x000000008831233c       0x20
 .text.RIL_Telephony_Hangup
                0x000000008831233c       0x20 build/gcc/obj/ril/src/ril_telephony.o
                0x000000008831233d                RIL_Telephony_Hangup

.text.RIL_Telephony_Answer
                0x000000008831235c       0x24
 .text.RIL_Telephony_Answer
                0x000000008831235c       0x24 build/gcc/obj/ril/src/ril_telephony.o
                0x000000008831235d                RIL_Telephony_Answer

.text.Telephony_Answer_AT_handler
                0x0000000088312380       0x74
 .text.Telephony_Answer_AT_handler
                0x0000000088312380       0x74 build/gcc/obj/ril/src/ril_telephony.o

.text.Telephony_Dial_AT_handler
                0x00000000883123f4       0x9c
 .text.Telephony_Dial_AT_handler
                0x00000000883123f4       0x9c build/gcc/obj/ril/src/ril_telephony.o

.text.RIL_Telephony_Dial
                0x0000000088312490       0x5c
 .text.RIL_Telephony_Dial
                0x0000000088312490       0x5c build/gcc/obj/ril/src/ril_telephony.o
                0x0000000088312491                RIL_Telephony_Dial

.text.ADP_SMS_ConvIdxToCoreIdx
                0x00000000883124ec       0x14
 .text.ADP_SMS_ConvIdxToCoreIdx
                0x00000000883124ec       0x14 build/gcc/obj/ril/src/ril_sms.o

.text.CmdGetStorageInfo
                0x0000000088312500       0x88
 .text.CmdGetStorageInfo
                0x0000000088312500       0x88 build/gcc/obj/ril/src/ril_sms.o

.text.RIL_SMS_DeleteSMS
                0x0000000088312588       0xa4
 .text.RIL_SMS_DeleteSMS
                0x0000000088312588       0xa4 build/gcc/obj/ril/src/ril_sms.o
                0x0000000088312589                RIL_SMS_DeleteSMS

.text.CmdReadPDUMsg
                0x000000008831262c       0xb0
 .text.CmdReadPDUMsg
                0x000000008831262c       0xb0 build/gcc/obj/ril/src/ril_sms.o

.text.RIL_SMS_GetStorage
                0x00000000883126dc       0x10
 .text.RIL_SMS_GetStorage
                0x00000000883126dc       0x10 build/gcc/obj/ril/src/ril_sms.o
                0x00000000883126dd                RIL_SMS_GetStorage

.text.RIL_SMS_SetStorage
                0x00000000883126ec       0xa0
 .text.RIL_SMS_SetStorage
                0x00000000883126ec       0xa0 build/gcc/obj/ril/src/ril_sms.o
                0x00000000883126ed                RIL_SMS_SetStorage

.text.ConvStringToPhoneNumber
                0x000000008831278c       0xa0
 .text.ConvStringToPhoneNumber
                0x000000008831278c       0xa0 build/gcc/obj/ril/src/ril_sms.o

.text.SMS_CMD_GeneralHandler
                0x000000008831282c      0x2b8
 .text.SMS_CMD_GeneralHandler
                0x000000008831282c      0x2b8 build/gcc/obj/ril/src/ril_sms.o

.text.RIL_SMS_ReadSMS_PDU
                0x0000000088312ae4       0x80
 .text.RIL_SMS_ReadSMS_PDU
                0x0000000088312ae4       0x80 build/gcc/obj/ril/src/ril_sms.o
                0x0000000088312ae5                RIL_SMS_ReadSMS_PDU

.text.CmdSendPDUMsg
                0x0000000088312b64       0xdc
 .text.CmdSendPDUMsg
                0x0000000088312b64       0xdc build/gcc/obj/ril/src/ril_sms.o

.text.RIL_SMS_SendSMS_Text_Ext
                0x0000000088312c40      0x1bc
 .text.RIL_SMS_SendSMS_Text_Ext
                0x0000000088312c40      0x1bc build/gcc/obj/ril/src/ril_sms.o
                0x0000000088312c41                RIL_SMS_SendSMS_Text_Ext

.text.RIL_SMS_SendSMS_Text
                0x0000000088312dfc      0x16c
 .text.RIL_SMS_SendSMS_Text
                0x0000000088312dfc      0x16c build/gcc/obj/ril/src/ril_sms.o
                0x0000000088312dfd                RIL_SMS_SendSMS_Text

.text.RIL_SMS_SendSMS_PDU
                0x0000000088312f68       0x64
 .text.RIL_SMS_SendSMS_PDU
                0x0000000088312f68       0x64 build/gcc/obj/ril/src/ril_sms.o
                0x0000000088312f69                RIL_SMS_SendSMS_PDU

.text.T.94      0x0000000088312fcc       0x6c
 .text.T.94     0x0000000088312fcc       0x6c build/gcc/obj/ril/src/ril_sms.o

.text.RIL_SMS_ReadSMS_Text
                0x0000000088313038      0x24c
 .text.RIL_SMS_ReadSMS_Text
                0x0000000088313038      0x24c build/gcc/obj/ril/src/ril_sms.o
                0x0000000088313039                RIL_SMS_ReadSMS_Text

.text.QSDK_Get_Str
                0x0000000088313284       0x90
 .text.QSDK_Get_Str
                0x0000000088313284       0x90 build/gcc/obj/ril/src/ril_system.o
                0x0000000088313285                QSDK_Get_Str

.text.RIL_GetIMEI
                0x0000000088313314       0x48
 .text.RIL_GetIMEI
                0x0000000088313314       0x48 build/gcc/obj/ril/src/ril_system.o
                0x0000000088313315                RIL_GetIMEI

.text.RIL_GetPowerSupply
                0x000000008831335c       0x38
 .text.RIL_GetPowerSupply
                0x000000008831335c       0x38 build/gcc/obj/ril/src/ril_system.o
                0x000000008831335d                RIL_GetPowerSupply

.text.RIL_QuerySysInitStatus
                0x0000000088313394       0x24
 .text.RIL_QuerySysInitStatus
                0x0000000088313394       0x24 build/gcc/obj/ril/src/ril_system.o
                0x0000000088313395                RIL_QuerySysInitStatus

.text.ATRsp_IMEI_Handler
                0x00000000883133b8       0x5c
 .text.ATRsp_IMEI_Handler
                0x00000000883133b8       0x5c build/gcc/obj/ril/src/ril_system.o

.text.Power_ATResponse_Hanlder
                0x0000000088313414       0xf0
 .text.Power_ATResponse_Hanlder
                0x0000000088313414       0xf0 build/gcc/obj/ril/src/ril_system.o

.text.SYS_ATResponse_Hanlder
                0x0000000088313504       0xa8
 .text.SYS_ATResponse_Hanlder
                0x0000000088313504       0xa8 build/gcc/obj/ril/src/ril_system.o

.text.OnURCHandler_QWDTMF
                0x00000000883135ac       0x60
 .text.OnURCHandler_QWDTMF
                0x00000000883135ac       0x60 build/gcc/obj/ril/src/Ril_dtmf.o
                0x00000000883135ad                OnURCHandler_QWDTMF

.text.OnURCHandler_QToneDet
                0x000000008831360c       0x9c
 .text.OnURCHandler_QToneDet
                0x000000008831360c       0x9c build/gcc/obj/ril/src/Ril_dtmf.o
                0x000000008831360d                OnURCHandler_QToneDet

.text.RIL_WDTMF_Send
                0x00000000883136a8       0x70
 .text.RIL_WDTMF_Send
                0x00000000883136a8       0x70 build/gcc/obj/ril/src/Ril_dtmf.o
                0x00000000883136a9                RIL_WDTMF_Send

.text.RIL_ToneDet_Get
                0x0000000088313718       0x70
 .text.RIL_ToneDet_Get
                0x0000000088313718       0x70 build/gcc/obj/ril/src/Ril_dtmf.o
                0x0000000088313719                RIL_ToneDet_Get

.text.RIL_ToneDet_Set
                0x0000000088313788       0x6c
 .text.RIL_ToneDet_Set
                0x0000000088313788       0x6c build/gcc/obj/ril/src/Ril_dtmf.o
                0x0000000088313789                RIL_ToneDet_Set

.text.RIL_ToneDet_Close
                0x00000000883137f4       0x44
 .text.RIL_ToneDet_Close
                0x00000000883137f4       0x44 build/gcc/obj/ril/src/Ril_dtmf.o
                0x00000000883137f5                RIL_ToneDet_Close

.text.RIL_ToneDet_Open
                0x0000000088313838       0x4c
 .text.RIL_ToneDet_Open
                0x0000000088313838       0x4c build/gcc/obj/ril/src/Ril_dtmf.o
                0x0000000088313839                RIL_ToneDet_Open

.text.ATResponse_Handler
                0x0000000088313884       0xf0
 .text.ATResponse_Handler
                0x0000000088313884       0x94 build/gcc/obj/ril/src/Ril_dtmf.o
 .text.ATResponse_Handler
                0x0000000088313918       0x5c build/gcc/obj/ril/src/ril_mqtt.o

.text.RIL_SIM_GetCCID
                0x0000000088313974       0x50
 .text.RIL_SIM_GetCCID
                0x0000000088313974       0x50 build/gcc/obj/ril/src/ril_sim.o
                0x0000000088313975                RIL_SIM_GetCCID

.text.RIL_SIM_GetIMSI
                0x00000000883139c4       0x50
 .text.RIL_SIM_GetIMSI
                0x00000000883139c4       0x50 build/gcc/obj/ril/src/ril_sim.o
                0x00000000883139c5                RIL_SIM_GetIMSI

.text.RIL_SIM_GetSimState
                0x0000000088313a14       0x50
 .text.RIL_SIM_GetSimState
                0x0000000088313a14       0x50 build/gcc/obj/ril/src/ril_sim.o
                0x0000000088313a15                RIL_SIM_GetSimState

.text.ATRsp_CCID_Handler
                0x0000000088313a64       0xa8
 .text.ATRsp_CCID_Handler
                0x0000000088313a64       0xa8 build/gcc/obj/ril/src/ril_sim.o

.text.ATRsp_IMSI_Handler
                0x0000000088313b0c       0x5c
 .text.ATRsp_IMSI_Handler
                0x0000000088313b0c       0x5c build/gcc/obj/ril/src/ril_sim.o

.text.RIL_SIM_GetSimStateByName
                0x0000000088313b68       0xd0
 .text.RIL_SIM_GetSimStateByName
                0x0000000088313b68       0xd0 build/gcc/obj/ril/src/ril_sim.o
                0x0000000088313b69                RIL_SIM_GetSimStateByName

.text.ATResponse_CPIN_Handler
                0x0000000088313c38       0xe8
 .text.ATResponse_CPIN_Handler
                0x0000000088313c38       0xe8 build/gcc/obj/ril/src/ril_sim.o

.text.RIL_QLBS_Loc
                0x0000000088313d20       0x4c
 .text.RIL_QLBS_Loc
                0x0000000088313d20       0x4c build/gcc/obj/ril/src/ril_location2.o
                0x0000000088313d21                RIL_QLBS_Loc

.text.RIL_QLBS_Cfg
                0x0000000088313d6c       0xcc
 .text.RIL_QLBS_Cfg
                0x0000000088313d6c       0xcc build/gcc/obj/ril/src/ril_location2.o
                0x0000000088313d6d                RIL_QLBS_Cfg

.text.RIL_QLBS_Loc_Ex
                0x0000000088313e38       0x7c
 .text.RIL_QLBS_Loc_Ex
                0x0000000088313e38       0x7c build/gcc/obj/ril/src/ril_location2.o
                0x0000000088313e39                RIL_QLBS_Loc_Ex

.text.ATResponse_Qlbs_Ex_Handler
                0x0000000088313eb4      0x150
 .text.ATResponse_Qlbs_Ex_Handler
                0x0000000088313eb4      0x150 build/gcc/obj/ril/src/ril_location2.o

.text.OnURCHandler_QLBS
                0x0000000088314004      0x184
 .text.OnURCHandler_QLBS
                0x0000000088314004      0x184 build/gcc/obj/ril/src/ril_location2.o
                0x0000000088314005                OnURCHandler_QLBS

.text.RIL_GetInitCmdCnt
                0x0000000088314188        0x4
 .text.RIL_GetInitCmdCnt
                0x0000000088314188        0x4 build/gcc/obj/ril/src/ril_init.o
                0x0000000088314189                RIL_GetInitCmdCnt

.text.RIL_GetLimitedCmdCnt
                0x000000008831418c        0x4
 .text.RIL_GetLimitedCmdCnt
                0x000000008831418c        0x4 build/gcc/obj/ril/src/ril_init.o
                0x000000008831418d                RIL_GetLimitedCmdCnt

.text.RIL_FTP_QIDEACT
                0x0000000088314190       0x2c
 .text.RIL_FTP_QIDEACT
                0x0000000088314190       0x2c build/gcc/obj/ril/src/ril_ftp.o
                0x0000000088314191                RIL_FTP_QIDEACT

.text.Callback_QIDEACT
                0x00000000883141bc       0x40
 .text.Callback_QIDEACT
                0x00000000883141bc       0x40 build/gcc/obj/ril/src/ril_ftp.o

.text.RIL_FTP_QFTPRMDIR
                0x00000000883141fc       0x64
 .text.RIL_FTP_QFTPRMDIR
                0x00000000883141fc       0x64 build/gcc/obj/ril/src/ril_ftp.o
                0x00000000883141fd                RIL_FTP_QFTPRMDIR

.text.RIL_FTP_QFTPMKDIR
                0x0000000088314260       0x64
 .text.RIL_FTP_QFTPMKDIR
                0x0000000088314260       0x64 build/gcc/obj/ril/src/ril_ftp.o
                0x0000000088314261                RIL_FTP_QFTPMKDIR

.text.RIL_FTP_QFTPDELETE
                0x00000000883142c4       0x64
 .text.RIL_FTP_QFTPDELETE
                0x00000000883142c4       0x64 build/gcc/obj/ril/src/ril_ftp.o
                0x00000000883142c5                RIL_FTP_QFTPDELETE

.text.RIL_FTP_QFTPSIZE
                0x0000000088314328       0x70
 .text.RIL_FTP_QFTPSIZE
                0x0000000088314328       0x70 build/gcc/obj/ril/src/ril_ftp.o
                0x0000000088314329                RIL_FTP_QFTPSIZE

.text.RIL_FTP_QFTPRENAME
                0x0000000088314398       0x6c
 .text.RIL_FTP_QFTPRENAME
                0x0000000088314398       0x6c build/gcc/obj/ril/src/ril_ftp.o
                0x0000000088314399                RIL_FTP_QFTPRENAME

.text.RIL_FTP_QFTPLEN
                0x0000000088314404       0x60
 .text.RIL_FTP_QFTPLEN
                0x0000000088314404       0x60 build/gcc/obj/ril/src/ril_ftp.o
                0x0000000088314405                RIL_FTP_QFTPLEN

.text.RIL_FTP_QFTPSTAT
                0x0000000088314464       0x60
 .text.RIL_FTP_QFTPSTAT
                0x0000000088314464       0x60 build/gcc/obj/ril/src/ril_ftp.o
                0x0000000088314465                RIL_FTP_QFTPSTAT

.text.RIL_FTP_QFTPCFG
                0x00000000883144c4       0x70
 .text.RIL_FTP_QFTPCFG
                0x00000000883144c4       0x70 build/gcc/obj/ril/src/ril_ftp.o
                0x00000000883144c5                RIL_FTP_QFTPCFG

.text.RIL_FTP_QFTPPATH
                0x0000000088314534       0x64
 .text.RIL_FTP_QFTPPATH
                0x0000000088314534       0x64 build/gcc/obj/ril/src/ril_ftp.o
                0x0000000088314535                RIL_FTP_QFTPPATH

.text.RIL_FTP_QFTPGET
                0x0000000088314598       0x74
 .text.RIL_FTP_QFTPGET
                0x0000000088314598       0x74 build/gcc/obj/ril/src/ril_ftp.o
                0x0000000088314599                RIL_FTP_QFTPGET

.text.RIL_FTP_QFTPPUT
                0x000000008831460c       0x7c
 .text.RIL_FTP_QFTPPUT
                0x000000008831460c       0x7c build/gcc/obj/ril/src/ril_ftp.o
                0x000000008831460d                RIL_FTP_QFTPPUT

.text.RIL_FTP_QFTPCLOSE
                0x0000000088314688       0x5c
 .text.RIL_FTP_QFTPCLOSE
                0x0000000088314688       0x5c build/gcc/obj/ril/src/ril_ftp.o
                0x0000000088314689                RIL_FTP_QFTPCLOSE

.text.ATResponse_QFTPSTAT_handler
                0x00000000883146e4       0xf4
 .text.ATResponse_QFTPSTAT_handler
                0x00000000883146e4       0xf4 build/gcc/obj/ril/src/ril_ftp.o

.text.ATResponse_FTP_handler_Common
                0x00000000883147d8       0xbc
 .text.ATResponse_FTP_handler_Common
                0x00000000883147d8       0xbc build/gcc/obj/ril/src/ril_ftp.o

.text.ATResponse_QFTPLEN_handler
                0x0000000088314894       0xb8
 .text.ATResponse_QFTPLEN_handler
                0x0000000088314894       0xb8 build/gcc/obj/ril/src/ril_ftp.o

.text.RIL_FTP_QFTPOPEN
                0x000000008831494c      0x14c
 .text.RIL_FTP_QFTPOPEN
                0x000000008831494c      0x14c build/gcc/obj/ril/src/ril_ftp.o
                0x000000008831494d                RIL_FTP_QFTPOPEN

.text.RIL_Alarm_Remove
                0x0000000088314a98       0x9c
 .text.RIL_Alarm_Remove
                0x0000000088314a98       0x9c build/gcc/obj/ril/src/ril_alarm.o
                0x0000000088314a99                RIL_Alarm_Remove

.text.RIL_Alarm_Query
                0x0000000088314b34       0x4c
 .text.RIL_Alarm_Query
                0x0000000088314b34       0x4c build/gcc/obj/ril/src/ril_alarm.o
                0x0000000088314b35                RIL_Alarm_Query

.text.RIL_Alarm_Create
                0x0000000088314b80       0xa8
 .text.RIL_Alarm_Create
                0x0000000088314b80       0xa8 build/gcc/obj/ril/src/ril_alarm.o
                0x0000000088314b81                RIL_Alarm_Create

.text.ATResponse_QALARM_Handler
                0x0000000088314c28      0x1d4
 .text.ATResponse_QALARM_Handler
                0x0000000088314c28      0x1d4 build/gcc/obj/ril/src/ril_alarm.o

.text.Ql_StrPrefixMatch
                0x0000000088314dfc       0x20
 .text.Ql_StrPrefixMatch
                0x0000000088314dfc       0x20 build/gcc/obj/ril/src/ril_util.o
                0x0000000088314dfd                Ql_StrPrefixMatch

.text.Ql_GenHash
                0x0000000088314e1c       0x34
 .text.Ql_GenHash
                0x0000000088314e1c       0x34 build/gcc/obj/ril/src/ril_util.o
                0x0000000088314e1d                Ql_GenHash

.text.Ql_RIL_FindString
                0x0000000088314e50       0x58
 .text.Ql_RIL_FindString
                0x0000000088314e50       0x58 build/gcc/obj/ril/src/ril_util.o
                0x0000000088314e51                Ql_RIL_FindString

.text.Ql_RIL_FindLine
                0x0000000088314ea8      0x160
 .text.Ql_RIL_FindLine
                0x0000000088314ea8      0x160 build/gcc/obj/ril/src/ril_util.o
                0x0000000088314ea9                Ql_RIL_FindLine

.text.Ql_StrToUpper
                0x0000000088315008       0x38
 .text.Ql_StrToUpper
                0x0000000088315008       0x38 build/gcc/obj/ril/src/ril_util.o
                0x0000000088315009                Ql_StrToUpper

.text.Ql_HexStrToInt
                0x0000000088315040       0x60
 .text.Ql_HexStrToInt
                0x0000000088315040       0x60 build/gcc/obj/ril/src/ril_util.o
                0x0000000088315041                Ql_HexStrToInt

.text.RIL_MQTT_QMTDISC
                0x00000000883150a0       0x50
 .text.RIL_MQTT_QMTDISC
                0x00000000883150a0       0x50 build/gcc/obj/ril/src/ril_mqtt.o
                0x00000000883150a1                RIL_MQTT_QMTDISC

.text.RIL_MQTT_QMTCLOSE
                0x00000000883150f0       0x50
 .text.RIL_MQTT_QMTCLOSE
                0x00000000883150f0       0x50 build/gcc/obj/ril/src/ril_mqtt.o
                0x00000000883150f1                RIL_MQTT_QMTCLOSE

.text.RIL_MQTT_QMTCONN
                0x0000000088315140       0x78
 .text.RIL_MQTT_QMTCONN
                0x0000000088315140       0x78 build/gcc/obj/ril/src/ril_mqtt.o
                0x0000000088315141                RIL_MQTT_QMTCONN

.text.RIL_MQTT_QMTOPEN
                0x00000000883151b8       0x60
 .text.RIL_MQTT_QMTOPEN
                0x00000000883151b8       0x60 build/gcc/obj/ril/src/ril_mqtt.o
                0x00000000883151b9                RIL_MQTT_QMTOPEN

.text.RIL_MQTT_QMTCFG_Version_Select
                0x0000000088315218       0x58
 .text.RIL_MQTT_QMTCFG_Version_Select
                0x0000000088315218       0x58 build/gcc/obj/ril/src/ril_mqtt.o
                0x0000000088315219                RIL_MQTT_QMTCFG_Version_Select

.text.RIL_MQTT_QMTCFG_Showrecvlen
                0x0000000088315270       0x58
 .text.RIL_MQTT_QMTCFG_Showrecvlen
                0x0000000088315270       0x58 build/gcc/obj/ril/src/ril_mqtt.o
                0x0000000088315271                RIL_MQTT_QMTCFG_Showrecvlen

.text.RIL_MQTT_QMTCFG_Ali
                0x00000000883152c8       0x60
 .text.RIL_MQTT_QMTCFG_Ali
                0x00000000883152c8       0x60 build/gcc/obj/ril/src/ril_mqtt.o
                0x00000000883152c9                RIL_MQTT_QMTCFG_Ali

.text.RIL_MQTT_QMTPUB
                0x0000000088315328       0x90
 .text.RIL_MQTT_QMTPUB
                0x0000000088315328       0x90 build/gcc/obj/ril/src/ril_mqtt.o
                0x0000000088315329                RIL_MQTT_QMTPUB

.text.ATResponse_QMTPUB_handler
                0x00000000883153b8       0x70
 .text.ATResponse_QMTPUB_handler
                0x00000000883153b8       0x70 build/gcc/obj/ril/src/ril_mqtt.o

.text.RIL_MQTT_QMTUNS
                0x0000000088315428       0xf8
 .text.RIL_MQTT_QMTUNS
                0x0000000088315428       0xf8 build/gcc/obj/ril/src/ril_mqtt.o
                0x0000000088315429                RIL_MQTT_QMTUNS

.text.RIL_MQTT_QMTSUB
                0x0000000088315520      0x104
 .text.RIL_MQTT_QMTSUB
                0x0000000088315520      0x104 build/gcc/obj/ril/src/ril_mqtt.o
                0x0000000088315521                RIL_MQTT_QMTSUB

.text.CallBack_GPRS_Deactived
                0x0000000088315624       0x98
 .text.CallBack_GPRS_Deactived
                0x0000000088315624       0x98 build/gcc/obj/example/example_tcpclient.o
                0x0000000088315625                CallBack_GPRS_Deactived

.text.Callback_GPRS_Actived
                0x00000000883156bc       0x88
 .text.Callback_GPRS_Actived
                0x00000000883156bc       0x88 build/gcc/obj/example/example_tcpclient.o
                0x00000000883156bd                Callback_GPRS_Actived

.text.HTTP_Program
                0x0000000088315744      0x270
 .text.HTTP_Program
                0x0000000088315744      0x270 build/gcc/obj/example/example_tcpclient.o
                0x0000000088315745                HTTP_Program

.text.HTTP_RcvData
                0x00000000883159b4       0xe8
 .text.HTTP_RcvData
                0x00000000883159b4       0xe8 build/gcc/obj/example/example_tcpclient.o

.text.proc_main_task
                0x0000000088315a9c       0xcc
 .text.proc_main_task
                0x0000000088315a9c       0xcc build/gcc/obj/example/example_tcpclient.o
                0x0000000088315a9d                proc_main_task

.text.Callback_Timer
                0x0000000088315b68      0x418
 .text.Callback_Timer
                0x0000000088315b68      0x418 build/gcc/obj/example/example_tcpclient.o

.text.CallBack_UART_Hdlr
                0x0000000088315f80       0xb4
 .text.CallBack_UART_Hdlr
                0x0000000088315f80       0xb4 build/gcc/obj/example/example_tcpclient.o

.text.Analyse_Command
                0x0000000088316034      0x10c
 .text.Analyse_Command
                0x0000000088316034      0x10c build/gcc/obj/example/debug.o
                0x0000000088316035                Analyse_Command

.text.ReadSerialPort
                0x0000000088316140       0x4c
 .text.ReadSerialPort
                0x0000000088316140       0x4c build/gcc/obj/example/debug.o
                0x0000000088316141                ReadSerialPort

.text.Dfota_Upgrade_States
                0x000000008831618c       0xc8
 .text.Dfota_Upgrade_States
                0x000000008831618c       0xc8 build/gcc/obj/custom/dfota/src/dfota_main.o

.text.Ql_DFOTA_StartUpgrade
                0x0000000088316254      0x104
 .text.Ql_DFOTA_StartUpgrade
                0x0000000088316254      0x104 build/gcc/obj/custom/dfota/src/dfota_main.o
                0x0000000088316255                Ql_DFOTA_StartUpgrade

.text.FTP_Callback_OnDownload
                0x0000000088316358      0x2b0
 .text.FTP_Callback_OnDownload
                0x0000000088316358      0x2b0 build/gcc/obj/custom/dfota/src/dfota_ftp.o
                0x0000000088316359                FTP_Callback_OnDownload

.text.FTP_IsFtpServer
                0x0000000088316608       0x44
 .text.FTP_IsFtpServer
                0x0000000088316608       0x44 build/gcc/obj/custom/dfota/src/dfota_ftp.o
                0x0000000088316609                FTP_IsFtpServer

.text.FTP_DfotaMain
                0x000000008831664c      0x5f0
 .text.FTP_DfotaMain
                0x000000008831664c      0x5f0 build/gcc/obj/custom/dfota/src/dfota_ftp.o
                0x000000008831664d                FTP_DfotaMain

.text.quectel_stricmp_bylength
                0x0000000088316c3c       0x68
 .text.quectel_stricmp_bylength
                0x0000000088316c3c       0x68 build/gcc/obj/custom/dfota/src/dfota_http_code.o
                0x0000000088316c3d                quectel_stricmp_bylength

.text.http_ip_check
                0x0000000088316ca4       0x38
 .text.http_ip_check
                0x0000000088316ca4       0x38 build/gcc/obj/custom/dfota/src/dfota_http_code.o
                0x0000000088316ca5                http_ip_check

.text.find_linesymbol
                0x0000000088316cdc       0x50
 .text.find_linesymbol
                0x0000000088316cdc       0x50 build/gcc/obj/custom/dfota/src/dfota_http_code.o
                0x0000000088316cdd                find_linesymbol

.text.http_DecodeHeader
                0x0000000088316d2c      0x1d0
 .text.http_DecodeHeader
                0x0000000088316d2c      0x1d0 build/gcc/obj/custom/dfota/src/dfota_http_code.o
                0x0000000088316d2d                http_DecodeHeader

.text.http_DecodeURL
                0x0000000088316efc      0x288
 .text.http_DecodeURL
                0x0000000088316efc      0x288 build/gcc/obj/custom/dfota/src/dfota_http_code.o
                0x0000000088316efd                http_DecodeURL

.text.HttpCallback_GPRS_Actived
                0x0000000088317184        0x4
 .text.HttpCallback_GPRS_Actived
                0x0000000088317184        0x4 build/gcc/obj/custom/dfota/src/dfota_http.o
                0x0000000088317185                HttpCallback_GPRS_Actived

.text.HttpCallBack_GPRS_Deactived
                0x0000000088317188        0x4
 .text.HttpCallBack_GPRS_Deactived
                0x0000000088317188        0x4 build/gcc/obj/custom/dfota/src/dfota_http.o
                0x0000000088317189                HttpCallBack_GPRS_Deactived

.text.Httpcallback_socket_connect
                0x000000008831718c        0x4
 .text.Httpcallback_socket_connect
                0x000000008831718c        0x4 build/gcc/obj/custom/dfota/src/dfota_http.o
                0x000000008831718d                Httpcallback_socket_connect

.text.Httpcallback_socket_close
                0x0000000088317190        0x4
 .text.Httpcallback_socket_close
                0x0000000088317190        0x4 build/gcc/obj/custom/dfota/src/dfota_http.o
                0x0000000088317191                Httpcallback_socket_close

.text.Httpcallback_socket_accept
                0x0000000088317194        0x4
 .text.Httpcallback_socket_accept
                0x0000000088317194        0x4 build/gcc/obj/custom/dfota/src/dfota_http.o
                0x0000000088317195                Httpcallback_socket_accept

.text.Httpcallback_socket_write
                0x0000000088317198        0x4
 .text.Httpcallback_socket_write
                0x0000000088317198        0x4 build/gcc/obj/custom/dfota/src/dfota_http.o
                0x0000000088317199                Httpcallback_socket_write

.text.http_RecvHttpChunkedBody
                0x000000008831719c       0x34
 .text.http_RecvHttpChunkedBody
                0x000000008831719c       0x34 build/gcc/obj/custom/dfota/src/dfota_http.o
                0x000000008831719d                http_RecvHttpChunkedBody

.text.http_TimerCallback
                0x00000000883171d0       0x5c
 .text.http_TimerCallback
                0x00000000883171d0       0x5c build/gcc/obj/custom/dfota/src/dfota_http.o
                0x00000000883171d1                http_TimerCallback

.text.http_RecvHttpBody
                0x000000008831722c      0x270
 .text.http_RecvHttpBody
                0x000000008831722c      0x270 build/gcc/obj/custom/dfota/src/dfota_http.o
                0x000000008831722d                http_RecvHttpBody

.text.http_RecvHttpHead
                0x000000008831749c      0x1b4
 .text.http_RecvHttpHead
                0x000000008831749c      0x1b4 build/gcc/obj/custom/dfota/src/dfota_http.o
                0x000000008831749d                http_RecvHttpHead

.text.Httpcallback_socket_read
                0x0000000088317650       0xa0
 .text.Httpcallback_socket_read
                0x0000000088317650       0xa0 build/gcc/obj/custom/dfota/src/dfota_http.o
                0x0000000088317651                Httpcallback_socket_read

.text.http_initialize
                0x00000000883176f0       0x9c
 .text.http_initialize
                0x00000000883176f0       0x9c build/gcc/obj/custom/dfota/src/dfota_http.o
                0x00000000883176f1                http_initialize

.text.http_SendHttpGetHead
                0x000000008831778c      0x300
 .text.http_SendHttpGetHead
                0x000000008831778c      0x300 build/gcc/obj/custom/dfota/src/dfota_http.o
                0x000000008831778d                http_SendHttpGetHead

.text.http_GetImagefilefromServer
                0x0000000088317a8c       0xe8
 .text.http_GetImagefilefromServer
                0x0000000088317a8c       0xe8 build/gcc/obj/custom/dfota/src/dfota_http.o
                0x0000000088317a8d                http_GetImagefilefromServer

.text.Callback_GetIpByHostName
                0x0000000088317b74       0x40
 .text.Callback_GetIpByHostName
                0x0000000088317b74       0x40 build/gcc/obj/custom/dfota/src/dfota_http.o
                0x0000000088317b75                Callback_GetIpByHostName

.text.HTTP_DfotaMain
                0x0000000088317bb4      0x26c
 .text.HTTP_DfotaMain
                0x0000000088317bb4      0x26c build/gcc/obj/custom/dfota/src/dfota_http.o
                0x0000000088317bb5                HTTP_DfotaMain

.text.HTTP_IsHttpServer
                0x0000000088317e20       0x44
 .text.HTTP_IsHttpServer
                0x0000000088317e20       0x44 build/gcc/obj/custom/dfota/src/dfota_http.o
                0x0000000088317e21                HTTP_IsHttpServer

.text.Ql_Timer_Register
                0x0000000088317e64       0x48
 .text.Ql_Timer_Register
                0x0000000088317e64       0x48 libs/gcc/app_start.lib(timer.o)
                0x0000000088317e65                Ql_Timer_Register

.text.Ql_Timer_RegisterFast
                0x0000000088317eac       0x48
 .text.Ql_Timer_RegisterFast
                0x0000000088317eac       0x48 libs/gcc/app_start.lib(timer.o)
                0x0000000088317ead                Ql_Timer_RegisterFast

.text.Ql_Timer_Start
                0x0000000088317ef4       0x4c
 .text.Ql_Timer_Start
                0x0000000088317ef4       0x4c libs/gcc/app_start.lib(timer.o)
                0x0000000088317ef5                Ql_Timer_Start

.text.Ql_Timer_Stop
                0x0000000088317f40       0x40
 .text.Ql_Timer_Stop
                0x0000000088317f40       0x40 libs/gcc/app_start.lib(timer.o)
                0x0000000088317f41                Ql_Timer_Stop

.text.Ql_GPRS_GetPDPCntxtState
                0x0000000088317f80       0x44
 .text.Ql_GPRS_GetPDPCntxtState
                0x0000000088317f80       0x44 libs/gcc/app_start.lib(gprs.o)
                0x0000000088317f81                Ql_GPRS_GetPDPCntxtState

.text.Ql_GPRS_GetPDPContextId
                0x0000000088317fc4       0x3c
 .text.Ql_GPRS_GetPDPContextId
                0x0000000088317fc4       0x3c libs/gcc/app_start.lib(gprs.o)
                0x0000000088317fc5                Ql_GPRS_GetPDPContextId

.text.Ql_GPRS_Config
                0x0000000088318000       0x44
 .text.Ql_GPRS_Config
                0x0000000088318000       0x44 libs/gcc/app_start.lib(gprs.o)
                0x0000000088318001                Ql_GPRS_Config

.text.Ql_GPRS_Register
                0x0000000088318044       0x48
 .text.Ql_GPRS_Register
                0x0000000088318044       0x48 libs/gcc/app_start.lib(gprs.o)
                0x0000000088318045                Ql_GPRS_Register

.text.Ql_GPRS_Activate
                0x000000008831808c       0x44
 .text.Ql_GPRS_Activate
                0x000000008831808c       0x44 libs/gcc/app_start.lib(gprs.o)
                0x000000008831808d                Ql_GPRS_Activate

.text.Ql_GPRS_ActivateEx
                0x00000000883180d0       0x48
 .text.Ql_GPRS_ActivateEx
                0x00000000883180d0       0x48 libs/gcc/app_start.lib(gprs.o)
                0x00000000883180d1                Ql_GPRS_ActivateEx

.text.Ql_GPRS_Deactivate
                0x0000000088318118       0x44
 .text.Ql_GPRS_Deactivate
                0x0000000088318118       0x44 libs/gcc/app_start.lib(gprs.o)
                0x0000000088318119                Ql_GPRS_Deactivate

.text.Ql_GPRS_DeactivateEx
                0x000000008831815c       0x48
 .text.Ql_GPRS_DeactivateEx
                0x000000008831815c       0x48 libs/gcc/app_start.lib(gprs.o)
                0x000000008831815d                Ql_GPRS_DeactivateEx

.text.Ql_GPRS_GetLocalIPAddress
                0x00000000883181a4       0x44
 .text.Ql_GPRS_GetLocalIPAddress
                0x00000000883181a4       0x44 libs/gcc/app_start.lib(gprs.o)
                0x00000000883181a5                Ql_GPRS_GetLocalIPAddress

.text.Ql_GPRS_GetDNSAddress
                0x00000000883181e8       0x48
 .text.Ql_GPRS_GetDNSAddress
                0x00000000883181e8       0x48 libs/gcc/app_start.lib(gprs.o)
                0x00000000883181e9                Ql_GPRS_GetDNSAddress

.text.Ql_GPRS_SetDNSAddress
                0x0000000088318230       0x48
 .text.Ql_GPRS_SetDNSAddress
                0x0000000088318230       0x48 libs/gcc/app_start.lib(gprs.o)
                0x0000000088318231                Ql_GPRS_SetDNSAddress

.text.playmem   0x0000000088318278       0x58
 .text.playmem  0x0000000088318278       0x58 libs/gcc/app_start.lib(ql_func.o)
                0x0000000088318279                playmem

.text.Ql_AUD_PlayBuf
                0x00000000883182d0       0x6c
 .text.Ql_AUD_PlayBuf
                0x00000000883182d0       0x6c libs/gcc/app_start.lib(ql_func.o)
                0x00000000883182d1                Ql_AUD_PlayBuf

.text.Ql_AUD_StopPlayBuf
                0x000000008831833c       0x38
 .text.Ql_AUD_StopPlayBuf
                0x000000008831833c       0x38 libs/gcc/app_start.lib(ql_func.o)
                0x000000008831833d                Ql_AUD_StopPlayBuf

.text.Ql_AUD_GetStatusPlaybuf
                0x0000000088318374       0x3c
 .text.Ql_AUD_GetStatusPlaybuf
                0x0000000088318374       0x3c libs/gcc/app_start.lib(ql_func.o)
                0x0000000088318375                Ql_AUD_GetStatusPlaybuf

.text.Ql_StartPlayAudioStream
                0x00000000883183b0       0x6c
 .text.Ql_StartPlayAudioStream
                0x00000000883183b0       0x6c libs/gcc/app_start.lib(ql_func.o)
                0x00000000883183b1                Ql_StartPlayAudioStream

.text.Ql_StopPlayAudioStream
                0x000000008831841c       0x3c
 .text.Ql_StopPlayAudioStream
                0x000000008831841c       0x3c libs/gcc/app_start.lib(ql_func.o)
                0x000000008831841d                Ql_StopPlayAudioStream

.text.Ql_GetRelativeTime_Counter
                0x0000000088318458       0x3c
 .text.Ql_GetRelativeTime_Counter
                0x0000000088318458       0x3c libs/gcc/app_start.lib(ql_func.o)
                0x0000000088318459                Ql_GetRelativeTime_Counter

.text.Ql_SecondToTicks
                0x0000000088318494       0x40
 .text.Ql_SecondToTicks
                0x0000000088318494       0x40 libs/gcc/app_start.lib(ql_func.o)
                0x0000000088318495                Ql_SecondToTicks

.text.Ql_MillisecondToTicks
                0x00000000883184d4       0x40
 .text.Ql_MillisecondToTicks
                0x00000000883184d4       0x40 libs/gcc/app_start.lib(ql_func.o)
                0x00000000883184d5                Ql_MillisecondToTicks

.text.Ql_CalendarTime2LocalTime
                0x0000000088318514       0x48
 .text.Ql_CalendarTime2LocalTime
                0x0000000088318514       0x48 libs/gcc/app_start.lib(ql_func.o)
                0x0000000088318515                Ql_CalendarTime2LocalTime

.text.Ql_osChangeTaskPriority
                0x000000008831855c       0x44
 .text.Ql_osChangeTaskPriority
                0x000000008831855c       0x44 libs/gcc/app_start.lib(ql_func.o)
                0x000000008831855d                Ql_osChangeTaskPriority

.text.Ql_OS_GetMessage
                0x00000000883185a0       0x40
 .text.Ql_OS_GetMessage
                0x00000000883185a0       0x40 libs/gcc/app_start.lib(taskMngt.o)
                0x00000000883185a1                Ql_OS_GetMessage

.text.Ql_OS_SendMessage
                0x00000000883185e0       0x4c
 .text.Ql_OS_SendMessage
                0x00000000883185e0       0x4c libs/gcc/app_start.lib(taskMngt.o)
                0x00000000883185e1                Ql_OS_SendMessage

.text.Ql_OS_CreateMutex
                0x000000008831862c       0x40
 .text.Ql_OS_CreateMutex
                0x000000008831862c       0x40 libs/gcc/app_start.lib(taskMngt.o)
                0x000000008831862d                Ql_OS_CreateMutex

.text.Ql_OS_TakeMutex
                0x000000008831866c       0x3c
 .text.Ql_OS_TakeMutex
                0x000000008831866c       0x3c libs/gcc/app_start.lib(taskMngt.o)
                0x000000008831866d                Ql_OS_TakeMutex

.text.Ql_OS_GiveMutex
                0x00000000883186a8       0x3c
 .text.Ql_OS_GiveMutex
                0x00000000883186a8       0x3c libs/gcc/app_start.lib(taskMngt.o)
                0x00000000883186a9                Ql_OS_GiveMutex

.text.Ql_OS_CreateSemaphore
                0x00000000883186e4       0x44
 .text.Ql_OS_CreateSemaphore
                0x00000000883186e4       0x44 libs/gcc/app_start.lib(taskMngt.o)
                0x00000000883186e5                Ql_OS_CreateSemaphore

.text.Ql_OS_TakeSemaphore
                0x0000000088318728       0x48
 .text.Ql_OS_TakeSemaphore
                0x0000000088318728       0x48 libs/gcc/app_start.lib(taskMngt.o)
                0x0000000088318729                Ql_OS_TakeSemaphore

.text.Ql_OS_GiveSemaphore
                0x0000000088318770       0x3c
 .text.Ql_OS_GiveSemaphore
                0x0000000088318770       0x3c libs/gcc/app_start.lib(taskMngt.o)
                0x0000000088318771                Ql_OS_GiveSemaphore

.text.Ql_OS_CreateEvent
                0x00000000883187ac       0x40
 .text.Ql_OS_CreateEvent
                0x00000000883187ac       0x40 libs/gcc/app_start.lib(taskMngt.o)
                0x00000000883187ad                Ql_OS_CreateEvent

.text.Ql_OS_WaitEvent
                0x00000000883187ec       0x44
 .text.Ql_OS_WaitEvent
                0x00000000883187ec       0x44 libs/gcc/app_start.lib(taskMngt.o)
                0x00000000883187ed                Ql_OS_WaitEvent

.text.Ql_OS_SetEvent
                0x0000000088318830       0x44
 .text.Ql_OS_SetEvent
                0x0000000088318830       0x44 libs/gcc/app_start.lib(taskMngt.o)
                0x0000000088318831                Ql_OS_SetEvent

.text.Ql_OS_GetActiveTaskId
                0x0000000088318874       0x3c
 .text.Ql_OS_GetActiveTaskId
                0x0000000088318874       0x3c libs/gcc/app_start.lib(taskMngt.o)
                0x0000000088318875                Ql_OS_GetActiveTaskId

.text.Ql_OS_SetLastErrorCode
                0x00000000883188b0       0x40
 .text.Ql_OS_SetLastErrorCode
                0x00000000883188b0       0x40 libs/gcc/app_start.lib(taskMngt.o)
                0x00000000883188b1                Ql_OS_SetLastErrorCode

.text.Ql_OS_GetLastErrorCode
                0x00000000883188f0       0x3c
 .text.Ql_OS_GetLastErrorCode
                0x00000000883188f0       0x3c libs/gcc/app_start.lib(taskMngt.o)
                0x00000000883188f1                Ql_OS_GetLastErrorCode

.text.Ql_OS_GetCurrentTaskPriority
                0x000000008831892c       0x3c
 .text.Ql_OS_GetCurrentTaskPriority
                0x000000008831892c       0x3c libs/gcc/app_start.lib(taskMngt.o)
                0x000000008831892d                Ql_OS_GetCurrentTaskPriority

.text.Ql_OS_GetCurrenTaskLeftStackSize
                0x0000000088318968       0x3c
 .text.Ql_OS_GetCurrenTaskLeftStackSize
                0x0000000088318968       0x3c libs/gcc/app_start.lib(taskMngt.o)
                0x0000000088318969                Ql_OS_GetCurrenTaskLeftStackSize

.text.Ql_DFOTA_Init
                0x00000000883189a4       0x40
 .text.Ql_DFOTA_Init
                0x00000000883189a4       0x40 libs/gcc/app_start.lib(fota.o)
                0x00000000883189a5                Ql_DFOTA_Init

.text.Ql_DFOTA_WriteData
                0x00000000883189e4       0x44
 .text.Ql_DFOTA_WriteData
                0x00000000883189e4       0x44 libs/gcc/app_start.lib(fota.o)
                0x00000000883189e5                Ql_DFOTA_WriteData

.text.Ql_DFOTA_Finish
                0x0000000088318a28       0x3c
 .text.Ql_DFOTA_Finish
                0x0000000088318a28       0x3c libs/gcc/app_start.lib(fota.o)
                0x0000000088318a29                Ql_DFOTA_Finish

.text.Ql_DFOTA_ReadData
                0x0000000088318a64       0x48
 .text.Ql_DFOTA_ReadData
                0x0000000088318a64       0x48 libs/gcc/app_start.lib(fota.o)
                0x0000000088318a65                Ql_DFOTA_ReadData

.text.Ql_DFOTA_Update
                0x0000000088318aac       0x3c
 .text.Ql_DFOTA_Update
                0x0000000088318aac       0x3c libs/gcc/app_start.lib(fota.o)
                0x0000000088318aad                Ql_DFOTA_Update

.text.memset    0x0000000088318ae8       0x70
 .text.memset   0x0000000088318ae8       0x70 libs/gcc/app_start.lib(ql_main.o)
                0x0000000088318ae9                memset

.text.memcpy    0x0000000088318b58      0x180
 .text.memcpy   0x0000000088318b58      0x180 libs/gcc/app_start.lib(ql_main.o)
                0x0000000088318b59                memcpy

.text.ql_InitVFunc
                0x0000000088318cd8       0x80
 .text.ql_InitVFunc
                0x0000000088318cd8       0x80 libs/gcc/app_start.lib(ql_main.o)
                0x0000000088318cd9                ql_InitVFunc

.text.ocpu_main
                0x0000000088318d58       0xe4
 .text.ocpu_main
                0x0000000088318d58       0xe4 libs/gcc/app_start.lib(ql_main.o)
                0x0000000088318d59                ocpu_main

.text.Ql_MEM_Alloc
                0x0000000088318e3c       0x54
 .text.Ql_MEM_Alloc
                0x0000000088318e3c       0x54 libs/gcc/app_start.lib(memory.o)
                0x0000000088318e3d                Ql_MEM_Alloc

.text.Ql_MEM_Free
                0x0000000088318e90       0x54
 .text.Ql_MEM_Free
                0x0000000088318e90       0x54 libs/gcc/app_start.lib(memory.o)
                0x0000000088318e91                Ql_MEM_Free

.text.set_errCode
                0x0000000088318ee4        0xc
 .text.set_errCode
                0x0000000088318ee4        0xc libs/gcc/app_start.lib(ril_main.o)

.text.get_errCode
                0x0000000088318ef0        0xc
 .text.get_errCode
                0x0000000088318ef0        0xc libs/gcc/app_start.lib(ril_main.o)

.text.get_ril_init_status
                0x0000000088318efc        0xc
 .text.get_ril_init_status
                0x0000000088318efc        0xc libs/gcc/app_start.lib(ril_main.o)
                0x0000000088318efd                get_ril_init_status

.text.startWithSpecialChar
                0x0000000088318f08       0x1c
 .text.startWithSpecialChar
                0x0000000088318f08       0x1c libs/gcc/app_start.lib(ril_main.o)

.text.Ql_Mqtt_Recv_Register
                0x0000000088318f24       0x14
 .text.Ql_Mqtt_Recv_Register
                0x0000000088318f24       0x14 libs/gcc/app_start.lib(ril_main.o)
                0x0000000088318f25                Ql_Mqtt_Recv_Register

.text.Ql_RIL_WriteDataToCore
                0x0000000088318f38       0x18
 .text.Ql_RIL_WriteDataToCore
                0x0000000088318f38       0x18 libs/gcc/app_start.lib(ril_main.o)
                0x0000000088318f39                Ql_RIL_WriteDataToCore

.text.Ql_RIL_GetLine
                0x0000000088318f50       0xd0
 .text.Ql_RIL_GetLine
                0x0000000088318f50       0xd0 libs/gcc/app_start.lib(ril_main.o)

.text.isLimitedCmd
                0x0000000088319020       0x3c
 .text.isLimitedCmd
                0x0000000088319020       0x3c libs/gcc/app_start.lib(ril_main.o)

.text.Ql_RIL_SendATCmd
                0x000000008831905c      0x1b0
 .text.Ql_RIL_SendATCmd
                0x000000008831905c      0x1b0 libs/gcc/app_start.lib(ril_main.o)
                0x000000008831905d                Ql_RIL_SendATCmd

.text.Ql_RIL_Initialize
                0x000000008831920c       0x90
 .text.Ql_RIL_Initialize
                0x000000008831920c       0x90 libs/gcc/app_start.lib(ril_main.o)
                0x000000008831920d                Ql_RIL_Initialize

.text.ril_StopATTimer
                0x000000008831929c       0x20
 .text.ril_StopATTimer
                0x000000008831929c       0x20 libs/gcc/app_start.lib(ril_main.o)

.text.Callback_OnATTimer
                0x00000000883192bc       0x30
 .text.Callback_OnATTimer
                0x00000000883192bc       0x30 libs/gcc/app_start.lib(ril_main.o)

.text.ril_StartATTimer
                0x00000000883192ec       0x28
 .text.ril_StartATTimer
                0x00000000883192ec       0x28 libs/gcc/app_start.lib(ril_main.o)

.text.proc_ril_task
                0x0000000088319314      0x114
 .text.proc_ril_task
                0x0000000088319314      0x114 libs/gcc/app_start.lib(ril_main.o)
                0x0000000088319315                proc_ril_task

.text.Read_SerialPort
                0x0000000088319428       0x50
 .text.Read_SerialPort
                0x0000000088319428       0x50 libs/gcc/app_start.lib(ril_main.o)

.text.CallBack_SerialPort_Hdlr
                0x0000000088319478      0x258
 .text.CallBack_SerialPort_Hdlr
                0x0000000088319478      0x258 libs/gcc/app_start.lib(ril_main.o)

.text.proc_urc_task
                0x00000000883196d0       0x38
 .text.proc_urc_task
                0x00000000883196d0       0x38 libs/gcc/app_start.lib(ril_aux.o)
                0x00000000883196d1                proc_urc_task

.text._OCPU_InitUserMem
                0x0000000088319708       0x48
 .text._OCPU_InitUserMem
                0x0000000088319708       0x48 libs/gcc/app_start.lib(ocpi_init.o)
                0x0000000088319709                _OCPU_InitUserMem

.text.Ql_FS_Open
                0x0000000088319750       0x44
 .text.Ql_FS_Open
                0x0000000088319750       0x44 libs/gcc/app_start.lib(fileSys.o)
                0x0000000088319751                Ql_FS_Open

.text.Ql_FS_OpenRAMFile
                0x0000000088319794       0x48
 .text.Ql_FS_OpenRAMFile
                0x0000000088319794       0x48 libs/gcc/app_start.lib(fileSys.o)
                0x0000000088319795                Ql_FS_OpenRAMFile

.text.Ql_FS_Read
                0x00000000883197dc       0x4c
 .text.Ql_FS_Read
                0x00000000883197dc       0x4c libs/gcc/app_start.lib(fileSys.o)
                0x00000000883197dd                Ql_FS_Read

.text.Ql_FS_Write
                0x0000000088319828       0x4c
 .text.Ql_FS_Write
                0x0000000088319828       0x4c libs/gcc/app_start.lib(fileSys.o)
                0x0000000088319829                Ql_FS_Write

.text.Ql_FS_Seek
                0x0000000088319874       0x48
 .text.Ql_FS_Seek
                0x0000000088319874       0x48 libs/gcc/app_start.lib(fileSys.o)
                0x0000000088319875                Ql_FS_Seek

.text.Ql_FS_GetFilePosition
                0x00000000883198bc       0x40
 .text.Ql_FS_GetFilePosition
                0x00000000883198bc       0x40 libs/gcc/app_start.lib(fileSys.o)
                0x00000000883198bd                Ql_FS_GetFilePosition

.text.Ql_FS_Truncate
                0x00000000883198fc       0x40
 .text.Ql_FS_Truncate
                0x00000000883198fc       0x40 libs/gcc/app_start.lib(fileSys.o)
                0x00000000883198fd                Ql_FS_Truncate

.text.Ql_FS_Flush
                0x000000008831993c       0x3c
 .text.Ql_FS_Flush
                0x000000008831993c       0x3c libs/gcc/app_start.lib(fileSys.o)
                0x000000008831993d                Ql_FS_Flush

.text.Ql_FS_Close
                0x0000000088319978       0x3c
 .text.Ql_FS_Close
                0x0000000088319978       0x3c libs/gcc/app_start.lib(fileSys.o)
                0x0000000088319979                Ql_FS_Close

.text.Ql_FS_GetSize
                0x00000000883199b4       0x40
 .text.Ql_FS_GetSize
                0x00000000883199b4       0x40 libs/gcc/app_start.lib(fileSys.o)
                0x00000000883199b5                Ql_FS_GetSize

.text.Ql_FS_Delete
                0x00000000883199f4       0x40
 .text.Ql_FS_Delete
                0x00000000883199f4       0x40 libs/gcc/app_start.lib(fileSys.o)
                0x00000000883199f5                Ql_FS_Delete

.text.Ql_FS_Check
                0x0000000088319a34       0x40
 .text.Ql_FS_Check
                0x0000000088319a34       0x40 libs/gcc/app_start.lib(fileSys.o)
                0x0000000088319a35                Ql_FS_Check

.text.Ql_FS_Rename
                0x0000000088319a74       0x44
 .text.Ql_FS_Rename
                0x0000000088319a74       0x44 libs/gcc/app_start.lib(fileSys.o)
                0x0000000088319a75                Ql_FS_Rename

.text.Ql_FS_CreateDir
                0x0000000088319ab8       0x40
 .text.Ql_FS_CreateDir
                0x0000000088319ab8       0x40 libs/gcc/app_start.lib(fileSys.o)
                0x0000000088319ab9                Ql_FS_CreateDir

.text.Ql_FS_DeleteDir
                0x0000000088319af8       0x40
 .text.Ql_FS_DeleteDir
                0x0000000088319af8       0x40 libs/gcc/app_start.lib(fileSys.o)
                0x0000000088319af9                Ql_FS_DeleteDir

.text.Ql_FS_CheckDir
                0x0000000088319b38       0x40
 .text.Ql_FS_CheckDir
                0x0000000088319b38       0x40 libs/gcc/app_start.lib(fileSys.o)
                0x0000000088319b39                Ql_FS_CheckDir

.text.Ql_FS_FindFirst
                0x0000000088319b78       0x50
 .text.Ql_FS_FindFirst
                0x0000000088319b78       0x50 libs/gcc/app_start.lib(fileSys.o)
                0x0000000088319b79                Ql_FS_FindFirst

.text.Ql_FS_FindNext
                0x0000000088319bc8       0x50
 .text.Ql_FS_FindNext
                0x0000000088319bc8       0x50 libs/gcc/app_start.lib(fileSys.o)
                0x0000000088319bc9                Ql_FS_FindNext

.text.Ql_FS_FindClose
                0x0000000088319c18       0x3c
 .text.Ql_FS_FindClose
                0x0000000088319c18       0x3c libs/gcc/app_start.lib(fileSys.o)
                0x0000000088319c19                Ql_FS_FindClose

.text.Ql_FS_XDelete
                0x0000000088319c54       0x44
 .text.Ql_FS_XDelete
                0x0000000088319c54       0x44 libs/gcc/app_start.lib(fileSys.o)
                0x0000000088319c55                Ql_FS_XDelete

.text.Ql_FS_XMove
                0x0000000088319c98       0x48
 .text.Ql_FS_XMove
                0x0000000088319c98       0x48 libs/gcc/app_start.lib(fileSys.o)
                0x0000000088319c99                Ql_FS_XMove

.text.Ql_FS_GetFreeSpace
                0x0000000088319ce0       0x50
 .text.Ql_FS_GetFreeSpace
                0x0000000088319ce0       0x50 libs/gcc/app_start.lib(fileSys.o)
                0x0000000088319ce1                Ql_FS_GetFreeSpace

.text.Ql_FS_GetTotalSpace
                0x0000000088319d30       0x50
 .text.Ql_FS_GetTotalSpace
                0x0000000088319d30       0x50 libs/gcc/app_start.lib(fileSys.o)
                0x0000000088319d31                Ql_FS_GetTotalSpace

.text.Ql_FS_Format
                0x0000000088319d80       0x44
 .text.Ql_FS_Format
                0x0000000088319d80       0x44 libs/gcc/app_start.lib(fileSys.o)
                0x0000000088319d81                Ql_FS_Format

.text.Ql_FS_Safe_Read
                0x0000000088319dc4       0x4c
 .text.Ql_FS_Safe_Read
                0x0000000088319dc4       0x4c libs/gcc/app_start.lib(fileSys.o)
                0x0000000088319dc5                Ql_FS_Safe_Read

.text.Ql_FS_Safe_Write
                0x0000000088319e10       0x4c
 .text.Ql_FS_Safe_Write
                0x0000000088319e10       0x4c libs/gcc/app_start.lib(fileSys.o)
                0x0000000088319e11                Ql_FS_Safe_Write

.text.EncodeAddress
                0x0000000088319e5c      0x190
 .text.EncodeAddress
                0x0000000088319e5c      0x190 libs/gcc/app_start.lib(lib_ril_sms.o)

.text.DecodeUserDataHeader
                0x0000000088319fec       0x60
 .text.DecodeUserDataHeader
                0x0000000088319fec       0x60 libs/gcc/app_start.lib(lib_ril_sms.o)

.text.ConvCharSetIRACharToAlphaDefaultExtend
                0x000000008831a04c       0x40
 .text.ConvCharSetIRACharToAlphaDefaultExtend
                0x000000008831a04c       0x40 libs/gcc/app_start.lib(lib_ril_sms.o)

.text.ConvCharSet88591CharToAlphaDefaultExtend
                0x000000008831a08c       0x40
 .text.ConvCharSet88591CharToAlphaDefaultExtend
                0x000000008831a08c       0x40 libs/gcc/app_start.lib(lib_ril_sms.o)

.text.LIB_SMS_IsValidHexStr
                0x000000008831a0cc       0x44
 .text.LIB_SMS_IsValidHexStr
                0x000000008831a0cc       0x44 libs/gcc/app_start.lib(lib_ril_sms.o)
                0x000000008831a0cd                LIB_SMS_IsValidHexStr

.text.LIB_SMS_ConvHexOctToHexStr
                0x000000008831a110       0x80
 .text.LIB_SMS_ConvHexOctToHexStr
                0x000000008831a110       0x80 libs/gcc/app_start.lib(lib_ril_sms.o)
                0x000000008831a111                LIB_SMS_ConvHexOctToHexStr

.text.LIB_SMS_ConvHexStrToHexOct
                0x000000008831a190       0xc0
 .text.LIB_SMS_ConvHexStrToHexOct
                0x000000008831a190       0xc0 libs/gcc/app_start.lib(lib_ril_sms.o)
                0x000000008831a191                LIB_SMS_ConvHexStrToHexOct

.text.LIB_SMS_DecodeDCS
                0x000000008831a250       0xc0
 .text.LIB_SMS_DecodeDCS
                0x000000008831a250       0xc0 libs/gcc/app_start.lib(lib_ril_sms.o)
                0x000000008831a251                LIB_SMS_DecodeDCS

.text.LIB_SMS_ConvAlphaToCharSet
                0x000000008831a310      0x370
 .text.LIB_SMS_ConvAlphaToCharSet
                0x000000008831a310      0x370 libs/gcc/app_start.lib(lib_ril_sms.o)
                0x000000008831a311                LIB_SMS_ConvAlphaToCharSet

.text.EncodeGSM7Bit
                0x000000008831a680       0xe8
 .text.EncodeGSM7Bit
                0x000000008831a680       0xe8 libs/gcc/app_start.lib(lib_ril_sms.o)

.text.LIB_SMS_EncodeSubmitPDU
                0x000000008831a768      0x438
 .text.LIB_SMS_EncodeSubmitPDU
                0x000000008831a768      0x438 libs/gcc/app_start.lib(lib_ril_sms.o)
                0x000000008831a769                LIB_SMS_EncodeSubmitPDU

.text.DecodeGSM7Bit
                0x000000008831aba0       0xd0
 .text.DecodeGSM7Bit
                0x000000008831aba0       0xd0 libs/gcc/app_start.lib(lib_ril_sms.o)

.text.DecordUserDataBody
                0x000000008831ac70       0xf4
 .text.DecordUserDataBody
                0x000000008831ac70       0xf4 libs/gcc/app_start.lib(lib_ril_sms.o)

.text.DecodeAddress
                0x000000008831ad64      0x170
 .text.DecodeAddress
                0x000000008831ad64      0x170 libs/gcc/app_start.lib(lib_ril_sms.o)

.text.LIB_SMS_ConvCharSetToAlpha
                0x000000008831aed4      0x540
 .text.LIB_SMS_ConvCharSetToAlpha
                0x000000008831aed4      0x540 libs/gcc/app_start.lib(lib_ril_sms.o)
                0x000000008831aed5                LIB_SMS_ConvCharSetToAlpha

.text.T.129     0x000000008831b414       0xf8
 .text.T.129    0x000000008831b414       0xf8 libs/gcc/app_start.lib(lib_ril_sms.o)

.text.LIB_SMS_DecodePDUStr
                0x000000008831b50c      0x394
 .text.LIB_SMS_DecodePDUStr
                0x000000008831b50c      0x394 libs/gcc/app_start.lib(lib_ril_sms.o)
                0x000000008831b50d                LIB_SMS_DecodePDUStr

.text.Ql_create_api_hash
                0x000000008831b8a0       0x1c
 .text.Ql_create_api_hash
                0x000000008831b8a0       0x1c libs/gcc/app_start.lib(stdlib_func.o)
                0x000000008831b8a1                Ql_create_api_hash

.text.Ql_ui64toa
                0x000000008831b8bc       0x6c
 .text.Ql_ui64toa
                0x000000008831b8bc       0x6c libs/gcc/app_start.lib(stdlib_func.o)
                0x000000008831b8bd                Ql_ui64toa

.text.Ql_itoa   0x000000008831b928       0x6c
 .text.Ql_itoa  0x000000008831b928       0x6c libs/gcc/app_start.lib(stdlib_func.o)
                0x000000008831b929                Ql_itoa

.text.Ql_atof   0x000000008831b994       0x64
 .text.Ql_atof  0x000000008831b994       0x64 libs/gcc/app_start.lib(stdlib_func.o)
                0x000000008831b995                Ql_atof

.text.Ql_strcpy
                0x000000008831b9f8       0x6c
 .text.Ql_strcpy
                0x000000008831b9f8       0x6c libs/gcc/app_start.lib(stdlib_func.o)
                0x000000008831b9f9                Ql_strcpy

.text.Ql_strncpy
                0x000000008831ba64       0x5c
 .text.Ql_strncpy
                0x000000008831ba64       0x5c libs/gcc/app_start.lib(stdlib_func.o)
                0x000000008831ba65                Ql_strncpy

.text.Ql_strcat
                0x000000008831bac0       0x58
 .text.Ql_strcat
                0x000000008831bac0       0x58 libs/gcc/app_start.lib(stdlib_func.o)
                0x000000008831bac1                Ql_strcat

.text.Ql_strncat
                0x000000008831bb18       0x5c
 .text.Ql_strncat
                0x000000008831bb18       0x5c libs/gcc/app_start.lib(stdlib_func.o)
                0x000000008831bb19                Ql_strncat

.text.Ql_strlen
                0x000000008831bb74       0x54
 .text.Ql_strlen
                0x000000008831bb74       0x54 libs/gcc/app_start.lib(stdlib_func.o)
                0x000000008831bb75                Ql_strlen

.text.Ql_strcmp
                0x000000008831bbc8       0x44
 .text.Ql_strcmp
                0x000000008831bbc8       0x44 libs/gcc/app_start.lib(stdlib_func.o)
                0x000000008831bbc9                Ql_strcmp

.text.Ql_strncmp
                0x000000008831bc0c       0x48
 .text.Ql_strncmp
                0x000000008831bc0c       0x48 libs/gcc/app_start.lib(stdlib_func.o)
                0x000000008831bc0d                Ql_strncmp

.text.Ql_memset
                0x000000008831bc54       0x60
 .text.Ql_memset
                0x000000008831bc54       0x60 libs/gcc/app_start.lib(stdlib_func.o)
                0x000000008831bc55                Ql_memset

.text.Ql_memcpy
                0x000000008831bcb4       0x5c
 .text.Ql_memcpy
                0x000000008831bcb4       0x5c libs/gcc/app_start.lib(stdlib_func.o)
                0x000000008831bcb5                Ql_memcpy

.text.Ql_memcmp
                0x000000008831bd10       0x48
 .text.Ql_memcmp
                0x000000008831bd10       0x48 libs/gcc/app_start.lib(stdlib_func.o)
                0x000000008831bd11                Ql_memcmp

.text.Ql_memmove
                0x000000008831bd58       0x5c
 .text.Ql_memmove
                0x000000008831bd58       0x5c libs/gcc/app_start.lib(stdlib_func.o)
                0x000000008831bd59                Ql_memmove

.text.Ql_strstr
                0x000000008831bdb4       0x58
 .text.Ql_strstr
                0x000000008831bdb4       0x58 libs/gcc/app_start.lib(stdlib_func.o)
                0x000000008831bdb5                Ql_strstr

.text.Ql_strchr
                0x000000008831be0c       0x58
 .text.Ql_strchr
                0x000000008831be0c       0x58 libs/gcc/app_start.lib(stdlib_func.o)
                0x000000008831be0d                Ql_strchr

.text.Ql_toupper
                0x000000008831be64        0x8
 .text.Ql_toupper
                0x000000008831be64        0x8 libs/gcc/app_start.lib(stdlib_func.o)
                0x000000008831be65                Ql_toupper

.text.Ql_tolower
                0x000000008831be6c        0x8
 .text.Ql_tolower
                0x000000008831be6c        0x8 libs/gcc/app_start.lib(stdlib_func.o)
                0x000000008831be6d                Ql_tolower

.text.Ql_isdigit
                0x000000008831be74       0x14
 .text.Ql_isdigit
                0x000000008831be74       0x14 libs/gcc/app_start.lib(stdlib_func.o)
                0x000000008831be75                Ql_isdigit

.text.Ql_atoi   0x000000008831be88       0x70
 .text.Ql_atoi  0x000000008831be88       0x70 libs/gcc/app_start.lib(stdlib_func.o)
                0x000000008831be89                Ql_atoi

.text.Ql_vsprintf
                0x000000008831bef8       0x5c
 .text.Ql_vsprintf
                0x000000008831bef8       0x5c libs/gcc/app_start.lib(stdlib_func.o)
                0x000000008831bef9                Ql_vsprintf

.text.Ql_Sleep  0x000000008831bf54       0x54
 .text.Ql_Sleep
                0x000000008831bf54       0x54 libs/gcc/app_start.lib(system.o)
                0x000000008831bf55                Ql_Sleep

.text.Ql_Reset  0x000000008831bfa8       0x54
 .text.Ql_Reset
                0x000000008831bfa8       0x54 libs/gcc/app_start.lib(system.o)
                0x000000008831bfa9                Ql_Reset

.text.Ql_GetUID
                0x000000008831bffc       0x44
 .text.Ql_GetUID
                0x000000008831bffc       0x44 libs/gcc/app_start.lib(system.o)
                0x000000008831bffd                Ql_GetUID

.text.Ql_GetMsSincePwrOn
                0x000000008831c040       0x58
 .text.Ql_GetMsSincePwrOn
                0x000000008831c040       0x58 libs/gcc/app_start.lib(system.o)
                0x000000008831c041                Ql_GetMsSincePwrOn

.text.Ql_GetCoreVer
                0x000000008831c098       0x48
 .text.Ql_GetCoreVer
                0x000000008831c098       0x48 libs/gcc/app_start.lib(system.o)
                0x000000008831c099                Ql_GetCoreVer

.text.Ql_GetSDKVer_Sub
                0x000000008831c0e0       0x44
 .text.Ql_GetSDKVer_Sub
                0x000000008831c0e0       0x44 libs/gcc/app_start.lib(system.o)
                0x000000008831c0e1                Ql_GetSDKVer_Sub

.text.Ql_GetSDKVer
                0x000000008831c124       0x44
 .text.Ql_GetSDKVer
                0x000000008831c124       0x44 libs/gcc/app_start.lib(system.o)
                0x000000008831c125                Ql_GetSDKVer

.text.Ql_UART_Register
                0x000000008831c168       0x48
 .text.Ql_UART_Register
                0x000000008831c168       0x48 libs/gcc/app_start.lib(uart.o)
                0x000000008831c169                Ql_UART_Register

.text.Ql_UART_Open
                0x000000008831c1b0       0x48
 .text.Ql_UART_Open
                0x000000008831c1b0       0x48 libs/gcc/app_start.lib(uart.o)
                0x000000008831c1b1                Ql_UART_Open

.text.Ql_UART_OpenEx
                0x000000008831c1f8       0x44
 .text.Ql_UART_OpenEx
                0x000000008831c1f8       0x44 libs/gcc/app_start.lib(uart.o)
                0x000000008831c1f9                Ql_UART_OpenEx

.text.Ql_UART_RX_Enable
                0x000000008831c23c       0x38
 .text.Ql_UART_RX_Enable
                0x000000008831c23c       0x38 libs/gcc/app_start.lib(uart.o)
                0x000000008831c23d                Ql_UART_RX_Enable

.text.Ql_UART_RX_Disable
                0x000000008831c274       0x3c
 .text.Ql_UART_RX_Disable
                0x000000008831c274       0x3c libs/gcc/app_start.lib(uart.o)
                0x000000008831c275                Ql_UART_RX_Disable

.text.Ql_UART_Write
                0x000000008831c2b0       0x48
 .text.Ql_UART_Write
                0x000000008831c2b0       0x48 libs/gcc/app_start.lib(uart.o)
                0x000000008831c2b1                Ql_UART_Write

.text.Ql_UART_Read
                0x000000008831c2f8       0x48
 .text.Ql_UART_Read
                0x000000008831c2f8       0x48 libs/gcc/app_start.lib(uart.o)
                0x000000008831c2f9                Ql_UART_Read

.text.Ql_UART_SetDCBConfig
                0x000000008831c340       0x44
 .text.Ql_UART_SetDCBConfig
                0x000000008831c340       0x44 libs/gcc/app_start.lib(uart.o)
                0x000000008831c341                Ql_UART_SetDCBConfig

.text.Ql_UART_GetDCBConfig
                0x000000008831c384       0x44
 .text.Ql_UART_GetDCBConfig
                0x000000008831c384       0x44 libs/gcc/app_start.lib(uart.o)
                0x000000008831c385                Ql_UART_GetDCBConfig

.text.Ql_UART_ClrRxBuffer
                0x000000008831c3c8       0x3c
 .text.Ql_UART_ClrRxBuffer
                0x000000008831c3c8       0x3c libs/gcc/app_start.lib(uart.o)
                0x000000008831c3c9                Ql_UART_ClrRxBuffer

.text.Ql_UART_ClrTxBuffer
                0x000000008831c404       0x3c
 .text.Ql_UART_ClrTxBuffer
                0x000000008831c404       0x3c libs/gcc/app_start.lib(uart.o)
                0x000000008831c405                Ql_UART_ClrTxBuffer

.text.Ql_UART_GetOption
                0x000000008831c440       0x48
 .text.Ql_UART_GetOption
                0x000000008831c440       0x48 libs/gcc/app_start.lib(uart.o)
                0x000000008831c441                Ql_UART_GetOption

.text.Ql_UART_SetOption
                0x000000008831c488       0x48
 .text.Ql_UART_SetOption
                0x000000008831c488       0x48 libs/gcc/app_start.lib(uart.o)
                0x000000008831c489                Ql_UART_SetOption

.text.Ql_UART_GetPinStatus
                0x000000008831c4d0       0x44
 .text.Ql_UART_GetPinStatus
                0x000000008831c4d0       0x44 libs/gcc/app_start.lib(uart.o)
                0x000000008831c4d1                Ql_UART_GetPinStatus

.text.Ql_UART_SetPinStatus
                0x000000008831c514       0x4c
 .text.Ql_UART_SetPinStatus
                0x000000008831c514       0x4c libs/gcc/app_start.lib(uart.o)
                0x000000008831c515                Ql_UART_SetPinStatus

.text.Ql_UART_SendEscap
                0x000000008831c560       0x40
 .text.Ql_UART_SendEscap
                0x000000008831c560       0x40 libs/gcc/app_start.lib(uart.o)
                0x000000008831c561                Ql_UART_SendEscap

.text.Ql_UART_Close
                0x000000008831c5a0       0x3c
 .text.Ql_UART_Close
                0x000000008831c5a0       0x3c libs/gcc/app_start.lib(uart.o)
                0x000000008831c5a1                Ql_UART_Close

.text.Ql_SOC_Register
                0x000000008831c5dc       0x50
 .text.Ql_SOC_Register
                0x000000008831c5dc       0x50 libs/gcc/app_start.lib(socket.o)
                0x000000008831c5dd                Ql_SOC_Register

.text.Ql_SOC_Create
                0x000000008831c62c       0x48
 .text.Ql_SOC_Create
                0x000000008831c62c       0x48 libs/gcc/app_start.lib(socket.o)
                0x000000008831c62d                Ql_SOC_Create

.text.Ql_SOC_CreateEx
                0x000000008831c674       0x68
 .text.Ql_SOC_CreateEx
                0x000000008831c674       0x68 libs/gcc/app_start.lib(socket.o)
                0x000000008831c675                Ql_SOC_CreateEx

.text.Ql_SOC_Close
                0x000000008831c6dc       0x40
 .text.Ql_SOC_Close
                0x000000008831c6dc       0x40 libs/gcc/app_start.lib(socket.o)
                0x000000008831c6dd                Ql_SOC_Close

.text.Ql_SOC_Connect
                0x000000008831c71c       0x50
 .text.Ql_SOC_Connect
                0x000000008831c71c       0x50 libs/gcc/app_start.lib(socket.o)
                0x000000008831c71d                Ql_SOC_Connect

.text.Ql_SOC_ConnectEx
                0x000000008831c76c       0x58
 .text.Ql_SOC_ConnectEx
                0x000000008831c76c       0x58 libs/gcc/app_start.lib(socket.o)
                0x000000008831c76d                Ql_SOC_ConnectEx

.text.Ql_SOC_Send
                0x000000008831c7c4       0x48
 .text.Ql_SOC_Send
                0x000000008831c7c4       0x48 libs/gcc/app_start.lib(socket.o)
                0x000000008831c7c5                Ql_SOC_Send

.text.Ql_SOC_Recv
                0x000000008831c80c       0x48
 .text.Ql_SOC_Recv
                0x000000008831c80c       0x48 libs/gcc/app_start.lib(socket.o)
                0x000000008831c80d                Ql_SOC_Recv

.text.Ql_SOC_GetAckNumber
                0x000000008831c854       0x44
 .text.Ql_SOC_GetAckNumber
                0x000000008831c854       0x44 libs/gcc/app_start.lib(socket.o)
                0x000000008831c855                Ql_SOC_GetAckNumber

.text.Ql_SOC_SendTo
                0x000000008831c898       0x58
 .text.Ql_SOC_SendTo
                0x000000008831c898       0x58 libs/gcc/app_start.lib(socket.o)
                0x000000008831c899                Ql_SOC_SendTo

.text.Ql_SOC_RecvFrom
                0x000000008831c8f0       0x50
 .text.Ql_SOC_RecvFrom
                0x000000008831c8f0       0x50 libs/gcc/app_start.lib(socket.o)
                0x000000008831c8f1                Ql_SOC_RecvFrom

.text.Ql_SOC_Bind
                0x000000008831c940       0x4c
 .text.Ql_SOC_Bind
                0x000000008831c940       0x4c libs/gcc/app_start.lib(socket.o)
                0x000000008831c941                Ql_SOC_Bind

.text.Ql_SOC_Listen
                0x000000008831c98c       0x44
 .text.Ql_SOC_Listen
                0x000000008831c98c       0x44 libs/gcc/app_start.lib(socket.o)
                0x000000008831c98d                Ql_SOC_Listen

.text.Ql_SOC_Accept
                0x000000008831c9d0       0x48
 .text.Ql_SOC_Accept
                0x000000008831c9d0       0x48 libs/gcc/app_start.lib(socket.o)
                0x000000008831c9d1                Ql_SOC_Accept

.text.Ql_IpHelper_GetIPByHostName
                0x000000008831ca18       0x50
 .text.Ql_IpHelper_GetIPByHostName
                0x000000008831ca18       0x50 libs/gcc/app_start.lib(socket.o)
                0x000000008831ca19                Ql_IpHelper_GetIPByHostName

.text.Ql_IpHelper_GetIPByHostNameEx
                0x000000008831ca68       0x54
 .text.Ql_IpHelper_GetIPByHostNameEx
                0x000000008831ca68       0x54 libs/gcc/app_start.lib(socket.o)
                0x000000008831ca69                Ql_IpHelper_GetIPByHostNameEx

.text.Ql_IpHelper_ConvertIpAddr
                0x000000008831cabc       0x44
 .text.Ql_IpHelper_ConvertIpAddr
                0x000000008831cabc       0x44 libs/gcc/app_start.lib(socket.o)
                0x000000008831cabd                Ql_IpHelper_ConvertIpAddr

.text.Ql_SOC_SetOption
                0x000000008831cb00       0x48
 .text.Ql_SOC_SetOption
                0x000000008831cb00       0x48 libs/gcc/app_start.lib(socket.o)
                0x000000008831cb01                Ql_SOC_SetOption

.text.Ql_SOC_SSL_InjectCertification
                0x000000008831cb48       0x44
 .text.Ql_SOC_SSL_InjectCertification
                0x000000008831cb48       0x44 libs/gcc/app_start.lib(socket.o)
                0x000000008831cb49                Ql_SOC_SSL_InjectCertification

.rodata         0x000000008831cb8c     0x3984
 *(.rodata)
 .rodata        0x000000008831cb8c       0x68 build/gcc/obj/ril/src/ril_http.o
 .rodata        0x000000008831cbf4       0x68 build/gcc/obj/ril/src/ril_network.o
 .rodata        0x000000008831cc5c       0x10 build/gcc/obj/ril/src/ril_location.o
 .rodata        0x000000008831cc6c        0xc build/gcc/obj/ril/src/ril_ntp.o
 .rodata        0x000000008831cc78        0x8 build/gcc/obj/ril/src/ril_system.o
 .rodata        0x000000008831cc80       0x1c build/gcc/obj/ril/src/Ril_dtmf.o
 .rodata        0x000000008831cc9c       0x24 build/gcc/obj/ril/src/ril_sim.o
 .rodata        0x000000008831ccc0        0xc build/gcc/obj/ril/src/ril_location2.o
 .rodata        0x000000008831cccc        0xc build/gcc/obj/ril/src/ril_ftp.o
 .rodata        0x000000008831ccd8       0x50 build/gcc/obj/ril/src/ril_alarm.o
 .rodata        0x000000008831cd28        0x8 build/gcc/obj/example/example_tcpclient.o
 .rodata        0x000000008831cd30        0x4 libs/gcc/app_start.lib(ril_main.o)
 .rodata        0x000000008831cd34       0x24 libs/gcc/app_start.lib(system.o)
 *(.rodata.*)
 .rodata.SystemCfg
                0x000000008831cd58       0x3c build/gcc/obj/custom/config/custom_sys_cfg.o
                0x000000008831cd58                SystemCfg
 .rodata.wtdCfg
                0x000000008831cd94        0x8 build/gcc/obj/custom/config/custom_sys_cfg.o
 .rodata.appEnableCfg
                0x000000008831cd9c        0x4 build/gcc/obj/custom/config/custom_sys_cfg.o
 .rodata.pwrkeyCfg
                0x000000008831cda0        0x4 build/gcc/obj/custom/config/custom_sys_cfg.o
 .rodata.debugPortCfg
                0x000000008831cda4        0x4 build/gcc/obj/custom/config/custom_sys_cfg.o
 .rodata.TaskConfig
                0x000000008831cda8       0x50 build/gcc/obj/custom/config/sys_config.o
                0x000000008831cda8                TaskConfig
 .rodata.GpioConfigTbl
                0x000000008831cdf8       0x10 build/gcc/obj/custom/config/sys_config.o
                0x000000008831cdf8                GpioConfigTbl
 .rodata.str1.4
                0x000000008831ce08      0x144 build/gcc/obj/ril/src/ril_audio.o
                                        0x150 (size before relaxing)
 .rodata.str1.4
                0x000000008831cf4c       0x19 build/gcc/obj/ril/src/ril_http.o
                                         0x34 (size before relaxing)
 *fill*         0x000000008831cf65        0x3 00
 .rodata.str1.4
                0x000000008831cf68      0x1ec build/gcc/obj/ril/src/ril_urc.o
                                        0x1f4 (size before relaxing)
 .rodata.m_SysURCHdlEntry
                0x000000008831d154      0x498 build/gcc/obj/ril/src/ril_urc.o
 .rodata.m_AtURCHdlEntry
                0x000000008831d5ec      0x3f0 build/gcc/obj/ril/src/ril_urc.o
 .rodata.str1.4
                0x000000008831d9dc       0x19 build/gcc/obj/ril/src/ril_atResponse.o
                                         0x34 (size before relaxing)
 *fill*         0x000000008831d9f5        0x3 00
 .rodata.str1.4
                0x000000008831d9f8      0x105 build/gcc/obj/ril/src/ril_network.o
                                        0x128 (size before relaxing)
 *fill*         0x000000008831dafd        0x3 00
 .rodata.str1.4
                0x000000008831db00       0xbf build/gcc/obj/ril/src/ril_location.o
                                         0xdc (size before relaxing)
 *fill*         0x000000008831dbbf        0x1 00
 .rodata.str1.4
                0x000000008831dbc0       0x12 build/gcc/obj/ril/src/ril_ntp.o
                                         0x14 (size before relaxing)
 *fill*         0x000000008831dbd2        0x2 00
 .rodata.str1.4
                0x000000008831dbd4       0x27 build/gcc/obj/ril/src/ril_telephony.o
                                         0x48 (size before relaxing)
 *fill*         0x000000008831dbfb        0x1 00
 .rodata.str1.4
                0x000000008831dbfc       0xbe build/gcc/obj/ril/src/ril_sms.o
                                         0xec (size before relaxing)
 *fill*         0x000000008831dcba        0x2 00
 .rodata.str1.4
                0x000000008831dcbc       0x27 build/gcc/obj/ril/src/ril_system.o
                                         0x4c (size before relaxing)
 *fill*         0x000000008831dce3        0x1 00
 .rodata.str1.4
                0x000000008831dce4       0x93 build/gcc/obj/ril/src/Ril_dtmf.o
                                         0xdc (size before relaxing)
 *fill*         0x000000008831dd77        0x1 00
 .rodata.str1.4
                0x000000008831dd78       0x98 build/gcc/obj/ril/src/ril_sim.o
                                         0xc0 (size before relaxing)
 .rodata.CSWTCH.23
                0x000000008831de10       0x24 build/gcc/obj/ril/src/ril_sim.o
 .rodata.str1.4
                0x000000008831de34       0xbf build/gcc/obj/ril/src/ril_location2.o
                                         0xe4 (size before relaxing)
 *fill*         0x000000008831def3        0x1 00
 .rodata.str1.4
                0x000000008831def4       0x58 build/gcc/obj/ril/src/ril_init.o
 .rodata.str1.4
                0x000000008831df4c      0x287 build/gcc/obj/ril/src/ril_ftp.o
                                        0x2c0 (size before relaxing)
 *fill*         0x000000008831e1d3        0x1 00
 .rodata.str1.4
                0x000000008831e1d4       0x7a build/gcc/obj/ril/src/ril_alarm.o
                                         0x90 (size before relaxing)
 *fill*         0x000000008831e24e        0x2 00
 .rodata.str1.4
                0x000000008831e250       0x15 build/gcc/obj/ril/src/ril_util.o
                                         0x20 (size before relaxing)
 *fill*         0x000000008831e265        0x3 00
 .rodata.str1.4
                0x000000008831e268      0x141 build/gcc/obj/ril/src/ril_mqtt.o
                                        0x174 (size before relaxing)
 *fill*         0x000000008831e3a9        0x3 00
 .rodata.str1.4
                0x000000008831e3ac      0x4f7 build/gcc/obj/example/example_tcpclient.o
                                        0x500 (size before relaxing)
 *fill*         0x000000008831e8a3        0x1 00
 .rodata.str1.4
                0x000000008831e8a4        0xc build/gcc/obj/example/debug.o
                                         0x10 (size before relaxing)
 .rodata.str1.4
                0x000000008831e8b0      0x1cd build/gcc/obj/custom/dfota/src/dfota_main.o
                                        0x1d0 (size before relaxing)
 *fill*         0x000000008831ea7d        0x3 00
 .rodata.str1.4
                0x000000008831ea80      0x697 build/gcc/obj/custom/dfota/src/dfota_ftp.o
                                        0x6a4 (size before relaxing)
 *fill*         0x000000008831f117        0x1 00
 .rodata.str1.4
                0x000000008831f118      0x117 build/gcc/obj/custom/dfota/src/dfota_http_code.o
                                        0x118 (size before relaxing)
 *fill*         0x000000008831f22f        0x1 00
 .rodata.str1.4
                0x000000008831f230      0x49d build/gcc/obj/custom/dfota/src/dfota_http.o
                                        0x500 (size before relaxing)
 *fill*         0x000000008831f6cd        0x3 00
 .rodata.str1.4
                0x000000008831f6d0       0x4a libs/gcc/app_start.lib(timer.o)
                                         0x4c (size before relaxing)
 *fill*         0x000000008831f71a        0x2 00
 .rodata.str1.4
                0x000000008831f71c       0xde libs/gcc/app_start.lib(gprs.o)
                                         0xe0 (size before relaxing)
 *fill*         0x000000008831f7fa        0x2 00
 .rodata.str1.4
                0x000000008831f7fc       0xf0 libs/gcc/app_start.lib(ql_func.o)
 .rodata.str1.4
                0x000000008831f8ec      0x159 libs/gcc/app_start.lib(taskMngt.o)
                                        0x15c (size before relaxing)
 *fill*         0x000000008831fa45        0x3 00
 .rodata.str1.4
                0x000000008831fa48       0x58 libs/gcc/app_start.lib(fota.o)
 .rodata.str1.4
                0x000000008831faa0      0x11f libs/gcc/app_start.lib(ql_main.o)
                                        0x128 (size before relaxing)
 *fill*         0x000000008831fbbf        0x1 00
 .rodata.str1.4
                0x000000008831fbc0       0x1c libs/gcc/app_start.lib(memory.o)
 .rodata.str1.4
                0x000000008831fbdc       0x35 libs/gcc/app_start.lib(ril_main.o)
                                         0x48 (size before relaxing)
 *fill*         0x000000008831fc11        0x3 00
 .rodata.str1.4
                0x000000008831fc14      0x195 libs/gcc/app_start.lib(fileSys.o)
                                        0x198 (size before relaxing)
 *fill*         0x000000008831fda9        0x3 00
 .rodata.sg_aAlphaDefaultExtendChars
                0x000000008831fdac       0x14 libs/gcc/app_start.lib(lib_ril_sms.o)
 .rodata.sg_aAlphaDefaultExtendCharsUCS2Map
                0x000000008831fdc0       0x14 libs/gcc/app_start.lib(lib_ril_sms.o)
 .rodata.sg_aAlphaDefaultCharsUCS2Map
                0x000000008831fdd4      0x100 libs/gcc/app_start.lib(lib_ril_sms.o)
 .rodata.sg_aAlphaDefaultCharsIRAMap
                0x000000008831fed4       0x80 libs/gcc/app_start.lib(lib_ril_sms.o)
 .rodata.sg_aAlphaDefaultExtendCharsIRAMap
                0x000000008831ff54        0xc libs/gcc/app_start.lib(lib_ril_sms.o)
 .rodata.sg_aAlphaDefaultChars88591Map
                0x000000008831ff60       0x80 libs/gcc/app_start.lib(lib_ril_sms.o)
 .rodata.sg_aAlphaDefaultExtendChars88591Map
                0x000000008831ffe0        0xc libs/gcc/app_start.lib(lib_ril_sms.o)
 .rodata.sg_aCharSetIRACharsGSMMap
                0x000000008831ffec       0x80 libs/gcc/app_start.lib(lib_ril_sms.o)
 .rodata.sg_aCharSet88591CharsGSMMap
                0x000000008832006c      0x100 libs/gcc/app_start.lib(lib_ril_sms.o)
 .rodata.str1.4
                0x000000008832016c       0xc4 libs/gcc/app_start.lib(stdlib_func.o)
 .rodata.str1.4
                0x0000000088320230       0x46 libs/gcc/app_start.lib(system.o)
                                         0x48 (size before relaxing)
 *fill*         0x0000000088320276        0x2 00
 .rodata.str1.4
                0x0000000088320278      0x126 libs/gcc/app_start.lib(uart.o)
                                        0x128 (size before relaxing)
 *fill*         0x000000008832039e        0x2 00
 .rodata.str1.4
                0x00000000883203a0      0x168 libs/gcc/app_start.lib(socket.o)
 *(.rel.dyn)
 .rel.dyn       0x0000000000000000        0x0 build/gcc/obj/example/example_tcpclient.o
                0x0000000088320510                . = ALIGN (0x10)
 *fill*         0x0000000088320508        0x8 00
                0x0000000088320510                _ROM_RW_DATA_START = .
                0x00000000823e7000                . = __RAM_START_ADDR

.app_RW_data    0x00000000823e7000      0x190 load address 0x0000000088320510
                0x00000000823e7000                _RAM_RW_DATA_START = .
 *(.data)
 .data          0x00000000823e7000        0x0 build/gcc/obj/custom/config/custom_sys_cfg.o
 .data          0x00000000823e7000        0x0 build/gcc/obj/custom/config/sys_config.o
 .data          0x00000000823e7000        0x0 build/gcc/obj/ril/src/ril_audio.o
 .data          0x00000000823e7000        0x0 build/gcc/obj/ril/src/ril_custom.o
 .data          0x00000000823e7000        0x0 build/gcc/obj/ril/src/ril_http.o
 .data          0x00000000823e7000        0x0 build/gcc/obj/ril/src/ril_urc.o
 .data          0x00000000823e7000        0x0 build/gcc/obj/ril/src/ril_atResponse.o
 .data          0x00000000823e7000        0x0 build/gcc/obj/ril/src/ril_network.o
 .data          0x00000000823e7000        0x0 build/gcc/obj/ril/src/ril_location.o
 .data          0x00000000823e7000        0x0 build/gcc/obj/ril/src/ril_ntp.o
 .data          0x00000000823e7000        0x0 build/gcc/obj/ril/src/ril_telephony.o
 .data          0x00000000823e7000        0x0 build/gcc/obj/ril/src/ril_sms.o
 .data          0x00000000823e7000        0x0 build/gcc/obj/ril/src/ril_system.o
 .data          0x00000000823e7000        0x0 build/gcc/obj/ril/src/Ril_dtmf.o
 .data          0x00000000823e7000        0x0 build/gcc/obj/ril/src/ril_sim.o
 .data          0x00000000823e7000        0x0 build/gcc/obj/ril/src/ril_location2.o
 .data          0x00000000823e7000        0x0 build/gcc/obj/ril/src/ril_init.o
 .data          0x00000000823e7000        0x0 build/gcc/obj/ril/src/ril_ftp.o
 .data          0x00000000823e7000        0x0 build/gcc/obj/ril/src/ril_alarm.o
 .data          0x00000000823e7000        0x0 build/gcc/obj/ril/src/ril_util.o
 .data          0x00000000823e7000        0x0 build/gcc/obj/ril/src/ril_mqtt.o
 .data          0x00000000823e7000        0x0 build/gcc/obj/example/example_location2.o
 .data          0x00000000823e7000        0x0 build/gcc/obj/example/example_dfota_ftp.o
 .data          0x00000000823e7000        0x0 build/gcc/obj/example/example_sms.o
 .data          0x00000000823e7000        0x0 build/gcc/obj/example/example_tcp_demo.o
 .data          0x00000000823e7000        0x0 build/gcc/obj/example/example_spi.o
 .data          0x00000000823e7000        0x0 build/gcc/obj/example/example_system.o
 .data          0x00000000823e7000        0x0 build/gcc/obj/example/example_tcpclient.o
 .data          0x00000000823e7000        0x0 build/gcc/obj/example/example_http.o
 .data          0x00000000823e7000        0x0 build/gcc/obj/example/example_dfota_http.o
 .data          0x00000000823e7000        0x0 build/gcc/obj/example/example_ftp.o
 .data          0x00000000823e7000        0x0 build/gcc/obj/example/example_float_math.o
 .data          0x00000000823e7000        0x0 build/gcc/obj/example/example_call.o
 .data          0x00000000823e7000        0x0 build/gcc/obj/example/example_memory.o
 .data          0x00000000823e7000        0x0 build/gcc/obj/example/example_udpserver.o
 .data          0x00000000823e7000        0x0 build/gcc/obj/example/example_multitask.o
 .data          0x00000000823e7000        0x0 build/gcc/obj/example/example_gpio.o
 .data          0x00000000823e7000        0x0 build/gcc/obj/example/example_adc.o
 .data          0x00000000823e7000        0x0 build/gcc/obj/example/debug.o
 .data          0x00000000823e7000        0x0 build/gcc/obj/example/example_clk.o
 .data          0x00000000823e7000        0x0 build/gcc/obj/example/example_transpass.o
 .data          0x00000000823e7000        0x0 build/gcc/obj/example/example_alarm.o
 .data          0x00000000823e7000        0x0 build/gcc/obj/example/example_multitask_port.o
 .data          0x00000000823e7000        0x0 build/gcc/obj/example/example_time.o
 .data          0x00000000823e7000        0x0 build/gcc/obj/example/example_watchdog.o
 .data          0x00000000823e7000        0x0 build/gcc/obj/example/example_timer.o
 .data          0x00000000823e7000        0x0 build/gcc/obj/example/example_udpclient.o
 .data          0x00000000823e7000        0x0 build/gcc/obj/example/example_mqtt.o
 .data          0x00000000823e7000        0x0 build/gcc/obj/example/example_audio.o
 .data          0x00000000823e7000        0x0 build/gcc/obj/example/example_tcpserver.o
 .data          0x00000000823e7000        0x0 build/gcc/obj/example/example_eint.o
 .data          0x00000000823e7000        0x0 build/gcc/obj/example/example_file.o
 .data          0x00000000823e7000        0x0 build/gcc/obj/example/example_iic.o
 .data          0x00000000823e7000        0x0 build/gcc/obj/example/example_location.o
 .data          0x00000000823e7000        0x0 build/gcc/obj/custom/main.o
 .data          0x00000000823e7000        0x0 build/gcc/obj/custom/dfota/src/dfota_main.o
 .data          0x00000000823e7000        0x0 build/gcc/obj/custom/dfota/src/dfota_ftp.o
 .data          0x00000000823e7000        0x0 build/gcc/obj/custom/dfota/src/dfota_http_code.o
 .data          0x00000000823e7000        0x0 build/gcc/obj/custom/dfota/src/dfota_http.o
 .data          0x00000000823e7000        0x0 libs/gcc/app_start.lib(timer.o)
 .data          0x00000000823e7000        0x0 libs/gcc/app_start.lib(gprs.o)
 .data          0x00000000823e7000        0x0 libs/gcc/app_start.lib(ql_func.o)
 .data          0x00000000823e7000        0x0 libs/gcc/app_start.lib(taskMngt.o)
 .data          0x00000000823e7000        0x0 libs/gcc/app_start.lib(fota.o)
 .data          0x00000000823e7000        0x0 libs/gcc/app_start.lib(ql_main.o)
 .data          0x00000000823e7000        0x0 libs/gcc/app_start.lib(memory.o)
 .data          0x00000000823e7000        0x0 libs/gcc/app_start.lib(ril_main.o)
 .data          0x00000000823e7000        0x0 libs/gcc/app_start.lib(ril_aux.o)
 .data          0x00000000823e7000        0x0 libs/gcc/app_start.lib(ocpi_init.o)
 .data          0x00000000823e7000        0x0 libs/gcc/app_start.lib(fileSys.o)
 .data          0x00000000823e7000        0x0 libs/gcc/app_start.lib(lib_ril_sms.o)
 .data          0x00000000823e7000        0x0 libs/gcc/app_start.lib(stdlib_func.o)
 .data          0x00000000823e7000        0x0 libs/gcc/app_start.lib(system.o)
 .data          0x00000000823e7000        0x0 libs/gcc/app_start.lib(uart.o)
 .data          0x00000000823e7000        0x0 libs/gcc/app_start.lib(socket.o)
 .data          0x00000000823e7000        0x0 C:\CSDTK4\/mips-elf-4.4.2/lib/gcc/mips-elf/4.4.2/libgcc.a(_df_to_si.o)
 .data          0x00000000823e7000        0x0 C:\CSDTK4\/mips-elf-4.4.2/lib/gcc/mips-elf/4.4.2/libgcc.a(_df_to_sf.o)
 .data          0x00000000823e7000        0x0 C:\CSDTK4\/mips-elf-4.4.2/lib/gcc/mips-elf/4.4.2/libgcc.a(_lshrdi3.o)
 .data          0x00000000823e7000        0x0 C:\CSDTK4\/mips-elf-4.4.2/lib/gcc/mips-elf/4.4.2/libgcc.a(_make_sf.o)
 .data          0x00000000823e7000        0x0 C:\CSDTK4\/mips-elf-4.4.2/lib/gcc/mips-elf/4.4.2/libgcc.a(_unpack_df.o)
 .data          0x00000000823e7000        0x0 C:\CSDTK4\/mips-elf-4.4.2/lib/gcc/mips-elf/4.4.2/libgcc.a(_pack_sf.o)
 *(.data.*)
 .data.mqtt_urc_param
                0x00000000823e7000       0x38 build/gcc/obj/ril/src/ril_urc.o
                0x00000000823e7000                mqtt_urc_param
 .data.g_InitCmds
                0x00000000823e7038       0x18 build/gcc/obj/ril/src/ril_init.o
                0x00000000823e7038                g_InitCmds
 .data.g_LimitedCmds
                0x00000000823e7050        0x8 build/gcc/obj/ril/src/ril_init.o
                0x00000000823e7050                g_LimitedCmds
 .data.Imei_m   0x00000000823e7058       0x10 build/gcc/obj/example/example_tcpclient.o
                0x00000000823e7058                Imei_m
 .data.callback_gprs_func
                0x00000000823e7068        0x8 build/gcc/obj/example/example_tcpclient.o
                0x00000000823e7068                callback_gprs_func
 .data.m_socketid
                0x00000000823e7070        0x4 build/gcc/obj/example/example_tcpclient.o
 .data.g_FOTA_State
                0x00000000823e7074        0x4 build/gcc/obj/custom/dfota/src/dfota_main.o
                0x00000000823e7074                g_FOTA_State
 .data.Fota_apn
                0x00000000823e7078       0x64 build/gcc/obj/custom/dfota/src/dfota_main.o
                0x00000000823e7078                Fota_apn
 .data.Fota_userid
                0x00000000823e70dc       0x20 build/gcc/obj/custom/dfota/src/dfota_main.o
                0x00000000823e70dc                Fota_userid
 .data.Fota_passwd
                0x00000000823e70fc       0x20 build/gcc/obj/custom/dfota/src/dfota_main.o
                0x00000000823e70fc                Fota_passwd
 .data.linesymbol.2408
                0x00000000823e711c        0x4 build/gcc/obj/custom/dfota/src/dfota_http_code.o
 .data.Httpcallback_gprs_func
                0x00000000823e7120        0x8 build/gcc/obj/custom/dfota/src/dfota_http.o
                0x00000000823e7120                Httpcallback_gprs_func
 .data.Httpcallback_SOC_func
                0x00000000823e7128       0x14 build/gcc/obj/custom/dfota/src/dfota_http.o
                0x00000000823e7128                Httpcallback_SOC_func
 .data.HttpGetHead
                0x00000000823e713c       0x18 build/gcc/obj/custom/dfota/src/dfota_http.o
                0x00000000823e713c                HttpGetHead
 .data.api_notsup
                0x00000000823e7154       0x18 libs/gcc/app_start.lib(ql_func.o)
                0x00000000823e7154                api_notsup
 .data.m_atTimer
                0x00000000823e716c        0xc libs/gcc/app_start.lib(ril_main.o)
 .data.m_thisTaskId
                0x00000000823e7178        0x4 libs/gcc/app_start.lib(ril_main.o)
 .data.g_ril_auxTaskId
                0x00000000823e717c        0x4 libs/gcc/app_start.lib(ril_aux.o)
                0x00000000823e717c                g_ril_auxTaskId
 .data.aaa      0x00000000823e7180        0x4 libs/gcc/app_start.lib(ocpi_init.o)
                0x00000000823e7180                aaa
 *(.sdata)
                0x00000000823e7190                . = ALIGN (0x10)
 *fill*         0x00000000823e7184        0xc 00
                0x00000000823e7190                _RAM_RW_DATA_END = .
                0x0000000000000190                _ROM_RW_DATA_SIZE = (_RAM_RW_DATA_END - _RAM_RW_DATA_START)
                0x00000000883206a0                _RAM_BSS_START = (_ROM_RW_DATA_START + _ROM_RW_DATA_SIZE)
                0x00000000823e7190                _ROM_END = _RAM_BSS_START
                0x00000000000106a0                _ROM_SIZE = (_ROM_END - _ROM_START)
                0x0000000000000001                ASSERT ((_ROM_SIZE < __MAX_ROM_SIZE), APP ROM OVERFLOW !!)

.backup         0x00000000823e7190        0x0
 *(.backup)
                0x00000000823e7190                . = ALIGN (0x4)

.app_ZI_data    0x00000000823e7190     0x4630
                0x00000000823e7190                _RAM_BSS_START = .
 *(.bss)
 .bss           0x00000000823e7190        0x0 build/gcc/obj/custom/config/custom_sys_cfg.o
 .bss           0x00000000823e7190        0x0 build/gcc/obj/custom/config/sys_config.o
 .bss           0x00000000823e7190        0x0 build/gcc/obj/ril/src/ril_audio.o
 .bss           0x00000000823e7190        0x0 build/gcc/obj/ril/src/ril_custom.o
 .bss           0x00000000823e7190        0x0 build/gcc/obj/ril/src/ril_http.o
 .bss           0x00000000823e7190        0x0 build/gcc/obj/ril/src/ril_urc.o
 .bss           0x00000000823e7190        0x0 build/gcc/obj/ril/src/ril_atResponse.o
 .bss           0x00000000823e7190        0x0 build/gcc/obj/ril/src/ril_network.o
 .bss           0x00000000823e7190        0x0 build/gcc/obj/ril/src/ril_location.o
 .bss           0x00000000823e7190        0x0 build/gcc/obj/ril/src/ril_ntp.o
 .bss           0x00000000823e7190        0x0 build/gcc/obj/ril/src/ril_telephony.o
 .bss           0x00000000823e7190        0x0 build/gcc/obj/ril/src/ril_sms.o
 .bss           0x00000000823e7190        0x0 build/gcc/obj/ril/src/ril_system.o
 .bss           0x00000000823e7190        0x0 build/gcc/obj/ril/src/Ril_dtmf.o
 .bss           0x00000000823e7190        0x0 build/gcc/obj/ril/src/ril_sim.o
 .bss           0x00000000823e7190        0x0 build/gcc/obj/ril/src/ril_location2.o
 .bss           0x00000000823e7190        0x0 build/gcc/obj/ril/src/ril_init.o
 .bss           0x00000000823e7190        0x0 build/gcc/obj/ril/src/ril_ftp.o
 .bss           0x00000000823e7190        0x0 build/gcc/obj/ril/src/ril_alarm.o
 .bss           0x00000000823e7190        0x0 build/gcc/obj/ril/src/ril_util.o
 .bss           0x00000000823e7190        0x0 build/gcc/obj/ril/src/ril_mqtt.o
 .bss           0x00000000823e7190        0x0 build/gcc/obj/example/example_location2.o
 .bss           0x00000000823e7190        0x0 build/gcc/obj/example/example_dfota_ftp.o
 .bss           0x00000000823e7190        0x0 build/gcc/obj/example/example_sms.o
 .bss           0x00000000823e7190        0x0 build/gcc/obj/example/example_tcp_demo.o
 .bss           0x00000000823e7190        0x0 build/gcc/obj/example/example_spi.o
 .bss           0x00000000823e7190        0x0 build/gcc/obj/example/example_system.o
 .bss           0x00000000823e7190        0x0 build/gcc/obj/example/example_tcpclient.o
 .bss           0x00000000823e7190        0x0 build/gcc/obj/example/example_http.o
 .bss           0x00000000823e7190        0x0 build/gcc/obj/example/example_dfota_http.o
 .bss           0x00000000823e7190        0x0 build/gcc/obj/example/example_ftp.o
 .bss           0x00000000823e7190        0x0 build/gcc/obj/example/example_float_math.o
 .bss           0x00000000823e7190        0x0 build/gcc/obj/example/example_call.o
 .bss           0x00000000823e7190        0x0 build/gcc/obj/example/example_memory.o
 .bss           0x00000000823e7190        0x0 build/gcc/obj/example/example_udpserver.o
 .bss           0x00000000823e7190        0x0 build/gcc/obj/example/example_multitask.o
 .bss           0x00000000823e7190        0x0 build/gcc/obj/example/example_gpio.o
 .bss           0x00000000823e7190        0x0 build/gcc/obj/example/example_adc.o
 .bss           0x00000000823e7190        0x0 build/gcc/obj/example/debug.o
 .bss           0x00000000823e7190        0x0 build/gcc/obj/example/example_clk.o
 .bss           0x00000000823e7190        0x0 build/gcc/obj/example/example_transpass.o
 .bss           0x00000000823e7190        0x0 build/gcc/obj/example/example_alarm.o
 .bss           0x00000000823e7190        0x0 build/gcc/obj/example/example_multitask_port.o
 .bss           0x00000000823e7190        0x0 build/gcc/obj/example/example_time.o
 .bss           0x00000000823e7190        0x0 build/gcc/obj/example/example_watchdog.o
 .bss           0x00000000823e7190        0x0 build/gcc/obj/example/example_timer.o
 .bss           0x00000000823e7190        0x0 build/gcc/obj/example/example_udpclient.o
 .bss           0x00000000823e7190        0x0 build/gcc/obj/example/example_mqtt.o
 .bss           0x00000000823e7190        0x0 build/gcc/obj/example/example_audio.o
 .bss           0x00000000823e7190        0x0 build/gcc/obj/example/example_tcpserver.o
 .bss           0x00000000823e7190        0x0 build/gcc/obj/example/example_eint.o
 .bss           0x00000000823e7190        0x0 build/gcc/obj/example/example_file.o
 .bss           0x00000000823e7190        0x0 build/gcc/obj/example/example_iic.o
 .bss           0x00000000823e7190        0x0 build/gcc/obj/example/example_location.o
 .bss           0x00000000823e7190        0x0 build/gcc/obj/custom/main.o
 .bss           0x00000000823e7190        0x0 build/gcc/obj/custom/dfota/src/dfota_main.o
 .bss           0x00000000823e7190        0x0 build/gcc/obj/custom/dfota/src/dfota_ftp.o
 .bss           0x00000000823e7190        0x0 build/gcc/obj/custom/dfota/src/dfota_http_code.o
 .bss           0x00000000823e7190        0x0 build/gcc/obj/custom/dfota/src/dfota_http.o
 .bss           0x00000000823e7190        0x0 libs/gcc/app_start.lib(timer.o)
 .bss           0x00000000823e7190        0x0 libs/gcc/app_start.lib(gprs.o)
 .bss           0x00000000823e7190        0x0 libs/gcc/app_start.lib(ql_func.o)
 .bss           0x00000000823e7190        0x0 libs/gcc/app_start.lib(taskMngt.o)
 .bss           0x00000000823e7190        0x0 libs/gcc/app_start.lib(fota.o)
 .bss           0x00000000823e7190        0x0 libs/gcc/app_start.lib(ql_main.o)
 .bss           0x00000000823e7190        0x0 libs/gcc/app_start.lib(memory.o)
 .bss           0x00000000823e7190        0x0 libs/gcc/app_start.lib(ril_main.o)
 .bss           0x00000000823e7190        0x0 libs/gcc/app_start.lib(ril_aux.o)
 .bss           0x00000000823e7190        0x0 libs/gcc/app_start.lib(ocpi_init.o)
 .bss           0x00000000823e7190        0x0 libs/gcc/app_start.lib(fileSys.o)
 .bss           0x00000000823e7190        0x0 libs/gcc/app_start.lib(lib_ril_sms.o)
 .bss           0x00000000823e7190        0x0 libs/gcc/app_start.lib(stdlib_func.o)
 .bss           0x00000000823e7190        0x0 libs/gcc/app_start.lib(system.o)
 .bss           0x00000000823e7190        0x0 libs/gcc/app_start.lib(uart.o)
 .bss           0x00000000823e7190        0x0 libs/gcc/app_start.lib(socket.o)
 .bss           0x00000000823e7190        0x0 C:\CSDTK4\/mips-elf-4.4.2/lib/gcc/mips-elf/4.4.2/libgcc.a(_df_to_si.o)
 .bss           0x00000000823e7190        0x0 C:\CSDTK4\/mips-elf-4.4.2/lib/gcc/mips-elf/4.4.2/libgcc.a(_df_to_sf.o)
 .bss           0x00000000823e7190        0x0 C:\CSDTK4\/mips-elf-4.4.2/lib/gcc/mips-elf/4.4.2/libgcc.a(_lshrdi3.o)
 .bss           0x00000000823e7190        0x0 C:\CSDTK4\/mips-elf-4.4.2/lib/gcc/mips-elf/4.4.2/libgcc.a(_make_sf.o)
 .bss           0x00000000823e7190        0x0 C:\CSDTK4\/mips-elf-4.4.2/lib/gcc/mips-elf/4.4.2/libgcc.a(_unpack_df.o)
 .bss           0x00000000823e7190        0x0 C:\CSDTK4\/mips-elf-4.4.2/lib/gcc/mips-elf/4.4.2/libgcc.a(_pack_sf.o)
 *(.sbss)
 *(.bss.*)
 .bss.cb_aud_play
                0x00000000823e7190        0x4 build/gcc/obj/ril/src/ril_audio.o
                0x00000000823e7190                cb_aud_play
 .bss.cb_rcvCoreData
                0x00000000823e7194        0x4 build/gcc/obj/ril/src/ril_custom.o
                0x00000000823e7194                cb_rcvCoreData
 .bss.http_url_addr
                0x00000000823e7198        0x4 build/gcc/obj/ril/src/ril_http.o
                0x00000000823e7198                http_url_addr
 .bss.http_url_addr_len
                0x00000000823e719c        0x2 build/gcc/obj/ril/src/ril_http.o
                0x00000000823e719c                http_url_addr_len
 *fill*         0x00000000823e719e        0x2 00
 .bss.http_post_msg
                0x00000000823e71a0        0x4 build/gcc/obj/ril/src/ril_http.o
                0x00000000823e71a0                http_post_msg
 .bss.http_post_msg_len
                0x00000000823e71a4        0x2 build/gcc/obj/ril/src/ril_http.o
                0x00000000823e71a4                http_post_msg_len
 *fill*         0x00000000823e71a6        0x2 00
 .bss.callback_http_dwnld
                0x00000000823e71a8        0x4 build/gcc/obj/ril/src/ril_http.o
                0x00000000823e71a8                callback_http_dwnld
 .bss.m_httpAction
                0x00000000823e71ac        0x4 build/gcc/obj/ril/src/ril_http.o
 .bss.FtpPut_IND_CB
                0x00000000823e71b0        0x4 build/gcc/obj/ril/src/ril_urc.o
                0x00000000823e71b0                FtpPut_IND_CB
 .bss.FtpGet_IND_CB
                0x00000000823e71b4        0x4 build/gcc/obj/ril/src/ril_urc.o
                0x00000000823e71b4                FtpGet_IND_CB
 .bss.m_iErrCode
                0x00000000823e71b8        0x4 build/gcc/obj/ril/src/ril_atResponse.o
 .bss.callback_loc
                0x00000000823e71bc        0x4 build/gcc/obj/ril/src/ril_location.o
 .bss.callback_NTPCMD
                0x00000000823e71c0        0x4 build/gcc/obj/ril/src/ril_ntp.o
 .bss.s_bSMSReadContentFlag.2468
                0x00000000823e71c4        0x1 build/gcc/obj/ril/src/ril_sms.o
 *fill*         0x00000000823e71c5        0x3 00
 .bss.callback_WDTMF
                0x00000000823e71c8        0x4 build/gcc/obj/ril/src/Ril_dtmf.o
 .bss.callback_ToneDet
                0x00000000823e71cc        0x4 build/gcc/obj/ril/src/Ril_dtmf.o
 .bss.g_low_thresholdPtr
                0x00000000823e71d0        0x4 build/gcc/obj/ril/src/Ril_dtmf.o
 .bss.g_high_thresholdPtr
                0x00000000823e71d4        0x4 build/gcc/obj/ril/src/Ril_dtmf.o
 .bss.update_time_flag
                0x00000000823e71d8        0x1 build/gcc/obj/ril/src/ril_location2.o
                0x00000000823e71d8                update_time_flag
 *fill*         0x00000000823e71d9        0x3 00
 .bss.callback_qlbsloc
                0x00000000823e71dc        0x4 build/gcc/obj/ril/src/ril_location2.o
 .bss.iRet      0x00000000823e71e0        0x4 build/gcc/obj/example/example_tcpclient.o
                0x00000000823e71e0                iRet
 *fill*         0x00000000823e71e4        0x4 00
 .bss.m_nSentLen
                0x00000000823e71e8        0x8 build/gcc/obj/example/example_tcpclient.o
 .bss.m_tcp_state
                0x00000000823e71f0        0x1 build/gcc/obj/example/example_tcpclient.o
 *fill*         0x00000000823e71f1        0x3 00
 .bss.m_rcvDataLen
                0x00000000823e71f4        0x4 build/gcc/obj/example/example_tcpclient.o
 .bss.timeout_90S_monitor
                0x00000000823e71f8        0x4 build/gcc/obj/example/example_tcpclient.o
 .bss.m_remain_len
                0x00000000823e71fc        0x4 build/gcc/obj/example/example_tcpclient.o
 .bss.m_pCurrentPos
                0x00000000823e7200        0x4 build/gcc/obj/example/example_tcpclient.o
 .bss.DBG_BUFFER
                0x00000000823e7204      0x200 build/gcc/obj/example/example_tcpclient.o
 .bss.m_RxBuf_Uart
                0x00000000823e7404      0x200 build/gcc/obj/example/example_tcpclient.o
 .bss.S_strngth
                0x00000000823e7604        0x4 build/gcc/obj/example/example_tcpclient.o
 .bss.m_send_buf
                0x00000000823e7608      0x400 build/gcc/obj/example/example_tcpclient.o
 .bss.ret       0x00000000823e7a08        0x4 build/gcc/obj/example/example_tcpclient.o
 .bss.Fota_UpgardeState
                0x00000000823e7a0c        0x4 build/gcc/obj/custom/dfota/src/dfota_main.o
                0x00000000823e7a0c                Fota_UpgardeState
 .bss.appBin_fName
                0x00000000823e7a10       0x34 build/gcc/obj/custom/dfota/src/dfota_ftp.o
 .bss.ServerAdder
                0x00000000823e7a44       0x28 build/gcc/obj/custom/dfota/src/dfota_ftp.o
 .bss.FilePath  0x00000000823e7a6c       0x3c build/gcc/obj/custom/dfota/src/dfota_ftp.o
 .bss.Ftp_userName
                0x00000000823e7aa8       0x14 build/gcc/obj/custom/dfota/src/dfota_ftp.o
 .bss.Ftp_Possword
                0x00000000823e7abc       0x14 build/gcc/obj/custom/dfota/src/dfota_ftp.o
 .bss.Contextid
                0x00000000823e7ad0        0x1 build/gcc/obj/custom/dfota/src/dfota_ftp.o
 *fill*         0x00000000823e7ad1        0x3 00
 .bss.SerPort   0x00000000823e7ad4        0x4 build/gcc/obj/custom/dfota/src/dfota_ftp.o
 .bss.dbg_httpresponse
                0x00000000823e7ad8        0x4 build/gcc/obj/custom/dfota/src/dfota_http_code.o
                0x00000000823e7ad8                dbg_httpresponse
 .bss.dbg_ContentLength
                0x00000000823e7adc        0x4 build/gcc/obj/custom/dfota/src/dfota_http_code.o
                0x00000000823e7adc                dbg_ContentLength
 .bss.m_Timer_Stop
                0x00000000823e7ae0        0x4 libs/gcc/app_start.lib(timer.o)
 .bss.m_Timer_Start
                0x00000000823e7ae4        0x4 libs/gcc/app_start.lib(timer.o)
 .bss.m_Timer_RegisterFast
                0x00000000823e7ae8        0x4 libs/gcc/app_start.lib(timer.o)
 .bss.m_Timer_Register
                0x00000000823e7aec        0x4 libs/gcc/app_start.lib(timer.o)
 .bss.m_GPRS_SetDNSAddress
                0x00000000823e7af0        0x4 libs/gcc/app_start.lib(gprs.o)
 .bss.m_GPRS_GetDNSAddress
                0x00000000823e7af4        0x4 libs/gcc/app_start.lib(gprs.o)
 .bss.m_GPRS_GetLocalIPAddress
                0x00000000823e7af8        0x4 libs/gcc/app_start.lib(gprs.o)
 .bss.m_GPRS_DeactivateEx
                0x00000000823e7afc        0x4 libs/gcc/app_start.lib(gprs.o)
 .bss.m_GPRS_Deactivate
                0x00000000823e7b00        0x4 libs/gcc/app_start.lib(gprs.o)
 .bss.m_GPRS_ActivateEx
                0x00000000823e7b04        0x4 libs/gcc/app_start.lib(gprs.o)
 .bss.m_GPRS_Activate
                0x00000000823e7b08        0x4 libs/gcc/app_start.lib(gprs.o)
 .bss.m_GPRS_Register
                0x00000000823e7b0c        0x4 libs/gcc/app_start.lib(gprs.o)
 .bss.m_GPRS_Config
                0x00000000823e7b10        0x4 libs/gcc/app_start.lib(gprs.o)
 .bss.m_GPRS_GetPDPCntxtState
                0x00000000823e7b14        0x4 libs/gcc/app_start.lib(gprs.o)
 .bss.m_create_api_hash
                0x00000000823e7b18        0x4 libs/gcc/app_start.lib(ql_func.o)
                0x00000000823e7b18                m_create_api_hash
 .bss.m_get_api_ptr
                0x00000000823e7b1c        0x4 libs/gcc/app_start.lib(ql_func.o)
                0x00000000823e7b1c                m_get_api_ptr
 .bss.m_StartPlayAudioStream
                0x00000000823e7b20        0x4 libs/gcc/app_start.lib(ql_func.o)
                0x00000000823e7b20                m_StartPlayAudioStream
 .bss.m_StopPlayAudioStream
                0x00000000823e7b24        0x4 libs/gcc/app_start.lib(ql_func.o)
                0x00000000823e7b24                m_StopPlayAudioStream
 .bss.m_playmem
                0x00000000823e7b28        0x4 libs/gcc/app_start.lib(ql_func.o)
                0x00000000823e7b28                m_playmem
 .bss.m_AUD_PlayBuf
                0x00000000823e7b2c        0x4 libs/gcc/app_start.lib(ql_func.o)
                0x00000000823e7b2c                m_AUD_PlayBuf
 .bss.m_AUD_StopPlayBuf
                0x00000000823e7b30        0x4 libs/gcc/app_start.lib(ql_func.o)
                0x00000000823e7b30                m_AUD_StopPlayBuf
 .bss.m_Ql_AUD_GetStatusPlaybuf
                0x00000000823e7b34        0x4 libs/gcc/app_start.lib(ql_func.o)
                0x00000000823e7b34                m_Ql_AUD_GetStatusPlaybuf
 .bss.m_GetRelativeTime_Counter
                0x00000000823e7b38        0x4 libs/gcc/app_start.lib(ql_func.o)
                0x00000000823e7b38                m_GetRelativeTime_Counter
 .bss.m_SecondToTicks
                0x00000000823e7b3c        0x4 libs/gcc/app_start.lib(ql_func.o)
                0x00000000823e7b3c                m_SecondToTicks
 .bss.m_MillisecondToTicks
                0x00000000823e7b40        0x4 libs/gcc/app_start.lib(ql_func.o)
                0x00000000823e7b40                m_MillisecondToTicks
 .bss.m_CalendarTime2LocalTime
                0x00000000823e7b44        0x4 libs/gcc/app_start.lib(ql_func.o)
                0x00000000823e7b44                m_CalendarTime2LocalTime
 .bss.m_osChangeTaskPriority
                0x00000000823e7b48        0x4 libs/gcc/app_start.lib(ql_func.o)
                0x00000000823e7b48                m_osChangeTaskPriority
 .bss.m_OS_GetCurrenTaskLeftStackSize
                0x00000000823e7b4c        0x4 libs/gcc/app_start.lib(taskMngt.o)
 .bss.m_OS_GetCurrentTaskPriority
                0x00000000823e7b50        0x4 libs/gcc/app_start.lib(taskMngt.o)
 .bss.m_OS_GetLastErrorCode
                0x00000000823e7b54        0x4 libs/gcc/app_start.lib(taskMngt.o)
 .bss.m_OS_SetLastErrorCode
                0x00000000823e7b58        0x4 libs/gcc/app_start.lib(taskMngt.o)
 .bss.m_OS_GetActiveTaskId
                0x00000000823e7b5c        0x4 libs/gcc/app_start.lib(taskMngt.o)
 .bss.m_OS_SetEvent
                0x00000000823e7b60        0x4 libs/gcc/app_start.lib(taskMngt.o)
 .bss.m_OS_WaitEvent
                0x00000000823e7b64        0x4 libs/gcc/app_start.lib(taskMngt.o)
 .bss.m_OS_CreateEvent
                0x00000000823e7b68        0x4 libs/gcc/app_start.lib(taskMngt.o)
 .bss.m_OS_GiveSemaphore
                0x00000000823e7b6c        0x4 libs/gcc/app_start.lib(taskMngt.o)
 .bss.m_OS_TakeSemaphore
                0x00000000823e7b70        0x4 libs/gcc/app_start.lib(taskMngt.o)
 .bss.m_OS_CreateSemaphore
                0x00000000823e7b74        0x4 libs/gcc/app_start.lib(taskMngt.o)
 .bss.m_OS_GiveMutex
                0x00000000823e7b78        0x4 libs/gcc/app_start.lib(taskMngt.o)
 .bss.m_OS_TakeMutex
                0x00000000823e7b7c        0x4 libs/gcc/app_start.lib(taskMngt.o)
 .bss.m_OS_CreateMutex
                0x00000000823e7b80        0x4 libs/gcc/app_start.lib(taskMngt.o)
 .bss.m_OS_SendMessage
                0x00000000823e7b84        0x4 libs/gcc/app_start.lib(taskMngt.o)
 .bss.m_OS_GetMessage
                0x00000000823e7b88        0x4 libs/gcc/app_start.lib(taskMngt.o)
 .bss.m_DFOTA_Update
                0x00000000823e7b8c        0x4 libs/gcc/app_start.lib(fota.o)
 .bss.m_DFOTA_ReadData
                0x00000000823e7b90        0x4 libs/gcc/app_start.lib(fota.o)
 .bss.m_DFOTA_Finish
                0x00000000823e7b94        0x4 libs/gcc/app_start.lib(fota.o)
 .bss.m_DFOTA_WriteData
                0x00000000823e7b98        0x4 libs/gcc/app_start.lib(fota.o)
 .bss.m_DFOTA_Init
                0x00000000823e7b9c        0x4 libs/gcc/app_start.lib(fota.o)
 .bss.runinfo   0x00000000823e7ba0       0x10 libs/gcc/app_start.lib(ql_main.o)
                0x00000000823e7ba0                runinfo
 .bss.init_size
                0x00000000823e7bb0        0x4 libs/gcc/app_start.lib(ql_main.o)
 .bss.m_MEM_Free
                0x00000000823e7bb4        0x4 libs/gcc/app_start.lib(memory.o)
 .bss.m_MEM_Alloc
                0x00000000823e7bb8        0x4 libs/gcc/app_start.lib(memory.o)
 .bss.m_isRILInited
                0x00000000823e7bbc        0x1 libs/gcc/app_start.lib(ril_main.o)
 *fill*         0x00000000823e7bbd        0x3 00
 .bss.m_nAtMutexId
                0x00000000823e7bc0        0x4 libs/gcc/app_start.lib(ril_main.o)
 .bss.m_userdata
                0x00000000823e7bc4        0x4 libs/gcc/app_start.lib(ril_main.o)
 .bss.m_atRsp_callback
                0x00000000823e7bc8        0x4 libs/gcc/app_start.lib(ril_main.o)
 .bss.m_IsATHandling
                0x00000000823e7bcc        0x1 libs/gcc/app_start.lib(ril_main.o)
 *fill*         0x00000000823e7bcd        0x3 00
 .bss.g_nEventGrpId
                0x00000000823e7bd0        0x4 libs/gcc/app_start.lib(ril_main.o)
 .bss.m_nATErrCode
                0x00000000823e7bd4        0x4 libs/gcc/app_start.lib(ril_main.o)
 .bss.m_pATRspLineBuf
                0x00000000823e7bd8        0x4 libs/gcc/app_start.lib(ril_main.o)
 .bss.m_nATRspBufLen
                0x00000000823e7bdc        0x4 libs/gcc/app_start.lib(ril_main.o)
 .bss.m_pATRspBuffer
                0x00000000823e7be0        0x4 libs/gcc/app_start.lib(ril_main.o)
 .bss.m_nATRsp_Result
                0x00000000823e7be4        0x4 libs/gcc/app_start.lib(ril_main.o)
 .bss.m_strATCmd
                0x00000000823e7be8      0x400 libs/gcc/app_start.lib(ril_main.o)
 .bss.m_RxBuf_VirtualPort1
                0x00000000823e7fe8      0x800 libs/gcc/app_start.lib(ril_main.o)
 .bss.m_data    0x00000000823e87e8        0x8 libs/gcc/app_start.lib(ril_main.o)
 .bss.g_ril_auxTaskReady
                0x00000000823e87f0        0x1 libs/gcc/app_start.lib(ril_aux.o)
                0x00000000823e87f0                g_ril_auxTaskReady
 *fill*         0x00000000823e87f1        0x3 00
 .bss.m_FS_Safe_Write
                0x00000000823e87f4        0x4 libs/gcc/app_start.lib(fileSys.o)
 .bss.m_FS_Safe_Read
                0x00000000823e87f8        0x4 libs/gcc/app_start.lib(fileSys.o)
 .bss.m_FS_Format
                0x00000000823e87fc        0x4 libs/gcc/app_start.lib(fileSys.o)
 .bss.m_FS_GetTotalSpace
                0x00000000823e8800        0x4 libs/gcc/app_start.lib(fileSys.o)
 .bss.m_FS_GetFreeSpace
                0x00000000823e8804        0x4 libs/gcc/app_start.lib(fileSys.o)
 .bss.m_FS_XMove
                0x00000000823e8808        0x4 libs/gcc/app_start.lib(fileSys.o)
 .bss.m_FS_XDelete
                0x00000000823e880c        0x4 libs/gcc/app_start.lib(fileSys.o)
 .bss.m_FS_FindClose
                0x00000000823e8810        0x4 libs/gcc/app_start.lib(fileSys.o)
 .bss.m_FS_FindNext
                0x00000000823e8814        0x4 libs/gcc/app_start.lib(fileSys.o)
 .bss.m_FS_FindFirst
                0x00000000823e8818        0x4 libs/gcc/app_start.lib(fileSys.o)
 .bss.m_FS_CheckDir
                0x00000000823e881c        0x4 libs/gcc/app_start.lib(fileSys.o)
 .bss.m_FS_DeleteDir
                0x00000000823e8820        0x4 libs/gcc/app_start.lib(fileSys.o)
 .bss.m_FS_CreateDir
                0x00000000823e8824        0x4 libs/gcc/app_start.lib(fileSys.o)
 .bss.m_FS_Rename
                0x00000000823e8828        0x4 libs/gcc/app_start.lib(fileSys.o)
 .bss.m_FS_Check
                0x00000000823e882c        0x4 libs/gcc/app_start.lib(fileSys.o)
 .bss.m_FS_Delete
                0x00000000823e8830        0x4 libs/gcc/app_start.lib(fileSys.o)
 .bss.m_FS_GetSize
                0x00000000823e8834        0x4 libs/gcc/app_start.lib(fileSys.o)
 .bss.m_FS_Close
                0x00000000823e8838        0x4 libs/gcc/app_start.lib(fileSys.o)
 .bss.m_FS_Flush
                0x00000000823e883c        0x4 libs/gcc/app_start.lib(fileSys.o)
 .bss.m_FS_Truncate
                0x00000000823e8840        0x4 libs/gcc/app_start.lib(fileSys.o)
 .bss.m_FS_GetFilePosition
                0x00000000823e8844        0x4 libs/gcc/app_start.lib(fileSys.o)
 .bss.m_FS_Seek
                0x00000000823e8848        0x4 libs/gcc/app_start.lib(fileSys.o)
 .bss.m_FS_Write
                0x00000000823e884c        0x4 libs/gcc/app_start.lib(fileSys.o)
 .bss.m_FS_Read
                0x00000000823e8850        0x4 libs/gcc/app_start.lib(fileSys.o)
 .bss.m_FS_OpenRAMFile
                0x00000000823e8854        0x4 libs/gcc/app_start.lib(fileSys.o)
 .bss.m_FS_Open
                0x00000000823e8858        0x4 libs/gcc/app_start.lib(fileSys.o)
 .bss.m_vsprintf
                0x00000000823e885c        0x4 libs/gcc/app_start.lib(stdlib_func.o)
 .bss.m_strchr  0x00000000823e8860        0x4 libs/gcc/app_start.lib(stdlib_func.o)
 .bss.m_strstr  0x00000000823e8864        0x4 libs/gcc/app_start.lib(stdlib_func.o)
 .bss.m_memmove
                0x00000000823e8868        0x4 libs/gcc/app_start.lib(stdlib_func.o)
 .bss.m_memcmp  0x00000000823e886c        0x4 libs/gcc/app_start.lib(stdlib_func.o)
 .bss.m_memcpy  0x00000000823e8870        0x4 libs/gcc/app_start.lib(stdlib_func.o)
 .bss.m_memset  0x00000000823e8874        0x4 libs/gcc/app_start.lib(stdlib_func.o)
 .bss.m_strncmp
                0x00000000823e8878        0x4 libs/gcc/app_start.lib(stdlib_func.o)
 .bss.m_strcmp  0x00000000823e887c        0x4 libs/gcc/app_start.lib(stdlib_func.o)
 .bss.m_strlen  0x00000000823e8880        0x4 libs/gcc/app_start.lib(stdlib_func.o)
 .bss.m_strncat
                0x00000000823e8884        0x4 libs/gcc/app_start.lib(stdlib_func.o)
 .bss.m_strcat  0x00000000823e8888        0x4 libs/gcc/app_start.lib(stdlib_func.o)
 .bss.m_strncpy
                0x00000000823e888c        0x4 libs/gcc/app_start.lib(stdlib_func.o)
 .bss.m_strcpy  0x00000000823e8890        0x4 libs/gcc/app_start.lib(stdlib_func.o)
 .bss.m_atof    0x00000000823e8894        0x4 libs/gcc/app_start.lib(stdlib_func.o)
 .bss.m_itoa    0x00000000823e8898        0x4 libs/gcc/app_start.lib(stdlib_func.o)
 .bss.m_ui64toa
                0x00000000823e889c        0x4 libs/gcc/app_start.lib(stdlib_func.o)
 .bss.m_GetCoreVer
                0x00000000823e88a0        0x4 libs/gcc/app_start.lib(system.o)
 .bss.m_GetMsSincePwrOn
                0x00000000823e88a4        0x4 libs/gcc/app_start.lib(system.o)
 .bss.m_GetUID  0x00000000823e88a8        0x4 libs/gcc/app_start.lib(system.o)
 .bss.m_Reset   0x00000000823e88ac        0x4 libs/gcc/app_start.lib(system.o)
 .bss.m_Sleep   0x00000000823e88b0        0x4 libs/gcc/app_start.lib(system.o)
 .bss.m_Ql_UART_Close
                0x00000000823e88b4        0x4 libs/gcc/app_start.lib(uart.o)
 .bss.m_Ql_UART_SendEscap
                0x00000000823e88b8        0x4 libs/gcc/app_start.lib(uart.o)
 .bss.m_Ql_UART_SetPinStatus
                0x00000000823e88bc        0x4 libs/gcc/app_start.lib(uart.o)
 .bss.m_Ql_UART_GetPinStatus
                0x00000000823e88c0        0x4 libs/gcc/app_start.lib(uart.o)
 .bss.m_Ql_UART_SetOption
                0x00000000823e88c4        0x4 libs/gcc/app_start.lib(uart.o)
 .bss.m_Ql_UART_GetOption
                0x00000000823e88c8        0x4 libs/gcc/app_start.lib(uart.o)
 .bss.m_Ql_UART_ClrTxBuffer
                0x00000000823e88cc        0x4 libs/gcc/app_start.lib(uart.o)
 .bss.m_Ql_UART_ClrRxBuffer
                0x00000000823e88d0        0x4 libs/gcc/app_start.lib(uart.o)
 .bss.m_Ql_UART_GetDCBConfig
                0x00000000823e88d4        0x4 libs/gcc/app_start.lib(uart.o)
 .bss.m_Ql_UART_SetDCBConfig
                0x00000000823e88d8        0x4 libs/gcc/app_start.lib(uart.o)
 .bss.m_Ql_UART_Read
                0x00000000823e88dc        0x4 libs/gcc/app_start.lib(uart.o)
 .bss.m_Ql_UART_Write
                0x00000000823e88e0        0x4 libs/gcc/app_start.lib(uart.o)
 .bss.m_Ql_UART_OpenEx
                0x00000000823e88e4        0x4 libs/gcc/app_start.lib(uart.o)
 .bss.m_Ql_UART_Open
                0x00000000823e88e8        0x4 libs/gcc/app_start.lib(uart.o)
 .bss.m_Ql_UART_Register
                0x00000000823e88ec        0x4 libs/gcc/app_start.lib(uart.o)
 .bss.m_SOC_SSL_InjectCertification
                0x00000000823e88f0        0x4 libs/gcc/app_start.lib(socket.o)
 .bss.m_SOC_SetOption
                0x00000000823e88f4        0x4 libs/gcc/app_start.lib(socket.o)
 .bss.m_IpHelper_ConvertIpAddr
                0x00000000823e88f8        0x4 libs/gcc/app_start.lib(socket.o)
 .bss.m_IpHelper_GetIPByHostNameEx
                0x00000000823e88fc        0x4 libs/gcc/app_start.lib(socket.o)
 .bss.m_IpHelper_GetIPByHostName
                0x00000000823e8900        0x4 libs/gcc/app_start.lib(socket.o)
 .bss.m_SOC_Accept
                0x00000000823e8904        0x4 libs/gcc/app_start.lib(socket.o)
 .bss.m_SOC_Listen
                0x00000000823e8908        0x4 libs/gcc/app_start.lib(socket.o)
 .bss.m_SOC_Bind
                0x00000000823e890c        0x4 libs/gcc/app_start.lib(socket.o)
 .bss.m_SOC_RecvFrom
                0x00000000823e8910        0x4 libs/gcc/app_start.lib(socket.o)
 .bss.m_SOC_SendTo
                0x00000000823e8914        0x4 libs/gcc/app_start.lib(socket.o)
 .bss.m_Ql_SOC_GetAckNumber
                0x00000000823e8918        0x4 libs/gcc/app_start.lib(socket.o)
 .bss.m_Ql_SOC_Recv
                0x00000000823e891c        0x4 libs/gcc/app_start.lib(socket.o)
 .bss.m_SOC_Send
                0x00000000823e8920        0x4 libs/gcc/app_start.lib(socket.o)
 .bss.m_SOC_ConnectEx
                0x00000000823e8924        0x4 libs/gcc/app_start.lib(socket.o)
 .bss.m_SOC_Connect
                0x00000000823e8928        0x4 libs/gcc/app_start.lib(socket.o)
 .bss.m_Ql_SOC_Close
                0x00000000823e892c        0x4 libs/gcc/app_start.lib(socket.o)
 .bss.m_SOC_CreateEx
                0x00000000823e8930        0x4 libs/gcc/app_start.lib(socket.o)
 .bss.m_SOC_Create
                0x00000000823e8934        0x4 libs/gcc/app_start.lib(socket.o)
 .bss.m_SOC_Register
                0x00000000823e8938        0x4 libs/gcc/app_start.lib(socket.o)
 *(COMMON)
 COMMON         0x00000000823e893c      0x124 build/gcc/obj/ril/src/ril_telephony.o
                0x00000000823e893c                g_comingCall
 COMMON         0x00000000823e8a60       0x1c build/gcc/obj/ril/src/ril_location2.o
                0x00000000823e8a60                loclnfo
 COMMON         0x00000000823e8a7c     0x2820 build/gcc/obj/example/example_tcpclient.o
                0x00000000823e8a7c                strCCID
                0x00000000823e8a9c                arrHttpRcvBuf
 COMMON         0x00000000823eb29c       0xc0 build/gcc/obj/custom/dfota/src/dfota_main.o
                0x00000000823eb29c                Fota_gprsCfg
                0x00000000823eb34c                FotaConfig
 COMMON         0x00000000823eb35c      0x200 build/gcc/obj/custom/dfota/src/dfota_http_code.o
                0x00000000823eb35c                Temp_DBGBuffer
 COMMON         0x00000000823eb55c      0x234 build/gcc/obj/custom/dfota/src/dfota_http.o
                0x00000000823eb55c                httpMainContext
 *(.scommon)
 .scommon       0x00000000823eb790        0x8 build/gcc/obj/example/example_tcpclient.o
                0x00000000823eb790                rssi
                0x00000000823eb794                ber
 .scommon       0x00000000823eb798       0x18 libs/gcc/app_start.lib(ql_main.o)
                0x00000000823eb798                Ql_snprintf
                0x00000000823eb79c                Ql_sprintf
                0x00000000823eb7a0                Ql_Debug_Trace
                0x00000000823eb7a4                Ql_sscanf
                0x00000000823eb7a8                Ql_Debug_TraceEx
                0x00000000823eb7ac                Ql_vsnprintf
 .scommon       0x00000000823eb7b0        0x4 libs/gcc/app_start.lib(ril_main.o)
                0x00000000823eb7b0                MQTT_Recvhandler
                0x00000000823eb7c0                . = ALIGN (0x10)
 *fill*         0x00000000823eb7b4        0xc 00
                0x00000000823eb7c0                _RAM_BSS_END = .
                0x0000000000004630                _RAM_BSS_SIZE = (_RAM_BSS_END - _RAM_BSS_START)
                0x0000000000000001                ASSERT (((_ROM_RW_DATA_SIZE + _RAM_BSS_SIZE) < (__RAM_END_ADDR - __RAM_START_ADDR)), APP RAM OVERFLOW !!)
LOAD build/gcc/obj/custom/config/custom_sys_cfg.o
LOAD build/gcc/obj/custom/config/sys_config.o
LOAD build/gcc/obj/ril/src/ril_audio.o
LOAD build/gcc/obj/ril/src/ril_custom.o
LOAD build/gcc/obj/ril/src/ril_http.o
LOAD build/gcc/obj/ril/src/ril_urc.o
LOAD build/gcc/obj/ril/src/ril_atResponse.o
LOAD build/gcc/obj/ril/src/ril_network.o
LOAD build/gcc/obj/ril/src/ril_location.o
LOAD build/gcc/obj/ril/src/ril_ntp.o
LOAD build/gcc/obj/ril/src/ril_telephony.o
LOAD build/gcc/obj/ril/src/ril_sms.o
LOAD build/gcc/obj/ril/src/ril_system.o
LOAD build/gcc/obj/ril/src/Ril_dtmf.o
LOAD build/gcc/obj/ril/src/ril_sim.o
LOAD build/gcc/obj/ril/src/ril_location2.o
LOAD build/gcc/obj/ril/src/ril_init.o
LOAD build/gcc/obj/ril/src/ril_ftp.o
LOAD build/gcc/obj/ril/src/ril_alarm.o
LOAD build/gcc/obj/ril/src/ril_util.o
LOAD build/gcc/obj/ril/src/ril_mqtt.o
LOAD build/gcc/obj/example/example_location2.o
LOAD build/gcc/obj/example/example_dfota_ftp.o
LOAD build/gcc/obj/example/example_sms.o
LOAD build/gcc/obj/example/example_tcp_demo.o
LOAD build/gcc/obj/example/example_spi.o
LOAD build/gcc/obj/example/example_system.o
LOAD build/gcc/obj/example/example_tcpclient.o
LOAD build/gcc/obj/example/example_http.o
LOAD build/gcc/obj/example/example_dfota_http.o
LOAD build/gcc/obj/example/example_ftp.o
LOAD build/gcc/obj/example/example_float_math.o
LOAD build/gcc/obj/example/example_call.o
LOAD build/gcc/obj/example/example_memory.o
LOAD build/gcc/obj/example/example_udpserver.o
LOAD build/gcc/obj/example/example_multitask.o
LOAD build/gcc/obj/example/example_gpio.o
LOAD build/gcc/obj/example/example_adc.o
LOAD build/gcc/obj/example/debug.o
LOAD build/gcc/obj/example/example_clk.o
LOAD build/gcc/obj/example/example_transpass.o
LOAD build/gcc/obj/example/example_alarm.o
LOAD build/gcc/obj/example/example_multitask_port.o
LOAD build/gcc/obj/example/example_time.o
LOAD build/gcc/obj/example/example_watchdog.o
LOAD build/gcc/obj/example/example_timer.o
LOAD build/gcc/obj/example/example_udpclient.o
LOAD build/gcc/obj/example/example_mqtt.o
LOAD build/gcc/obj/example/example_audio.o
LOAD build/gcc/obj/example/example_tcpserver.o
LOAD build/gcc/obj/example/example_eint.o
LOAD build/gcc/obj/example/example_file.o
LOAD build/gcc/obj/example/example_iic.o
LOAD build/gcc/obj/example/example_location.o
LOAD build/gcc/obj/custom/main.o
LOAD build/gcc/obj/custom/dfota/src/dfota_main.o
LOAD build/gcc/obj/custom/dfota/src/dfota_ftp.o
LOAD build/gcc/obj/custom/dfota/src/dfota_http_code.o
LOAD build/gcc/obj/custom/dfota/src/dfota_http.o
LOAD libs/gcc/fplibm.lib
LOAD libs/gcc/app_start.lib
LOAD C:\CSDTK4\/mips-elf-4.4.2/lib/gcc/mips-elf/4.4.2/libgcc.a
OUTPUT(build/gcc/APPGS5MDM32A01.elf elf32-littlemips)

.reginfo        0x0000000000000000       0x18
 .reginfo       0x0000000000000000       0x18 build/gcc/obj/custom/config/custom_sys_cfg.o

.pdr            0x0000000000000000     0x2fc0
 .pdr           0x0000000000000000       0x20 build/gcc/obj/custom/config/custom_sys_cfg.o
 .pdr           0x0000000000000020        0x0 build/gcc/obj/custom/config/sys_config.o
 .pdr           0x0000000000000020      0x1e0 build/gcc/obj/ril/src/ril_audio.o
 .pdr           0x0000000000000200       0x20 build/gcc/obj/ril/src/ril_custom.o
 .pdr           0x0000000000000220       0xc0 build/gcc/obj/ril/src/ril_http.o
 .pdr           0x00000000000002e0      0x2c0 build/gcc/obj/ril/src/ril_urc.o
 .pdr           0x00000000000005a0       0x60 build/gcc/obj/ril/src/ril_atResponse.o
 .pdr           0x0000000000000600      0x220 build/gcc/obj/ril/src/ril_network.o
 .pdr           0x0000000000000820       0xa0 build/gcc/obj/ril/src/ril_location.o
 .pdr           0x00000000000008c0       0x40 build/gcc/obj/ril/src/ril_ntp.o
 .pdr           0x0000000000000900       0xa0 build/gcc/obj/ril/src/ril_telephony.o
 .pdr           0x00000000000009a0      0x1e0 build/gcc/obj/ril/src/ril_sms.o
 .pdr           0x0000000000000b80       0xe0 build/gcc/obj/ril/src/ril_system.o
 .pdr           0x0000000000000c60      0x100 build/gcc/obj/ril/src/Ril_dtmf.o
 .pdr           0x0000000000000d60       0xe0 build/gcc/obj/ril/src/ril_sim.o
 .pdr           0x0000000000000e40       0xa0 build/gcc/obj/ril/src/ril_location2.o
 .pdr           0x0000000000000ee0       0x40 build/gcc/obj/ril/src/ril_init.o
 .pdr           0x0000000000000f20      0x240 build/gcc/obj/ril/src/ril_ftp.o
 .pdr           0x0000000000001160       0x80 build/gcc/obj/ril/src/ril_alarm.o
 .pdr           0x00000000000011e0       0xc0 build/gcc/obj/ril/src/ril_util.o
 .pdr           0x00000000000012a0      0x180 build/gcc/obj/ril/src/ril_mqtt.o
 .pdr           0x0000000000001420        0x0 build/gcc/obj/example/example_location2.o
 .pdr           0x0000000000001420        0x0 build/gcc/obj/example/example_dfota_ftp.o
 .pdr           0x0000000000001420        0x0 build/gcc/obj/example/example_sms.o
 .pdr           0x0000000000001420        0x0 build/gcc/obj/example/example_tcp_demo.o
 .pdr           0x0000000000001420        0x0 build/gcc/obj/example/example_spi.o
 .pdr           0x0000000000001420        0x0 build/gcc/obj/example/example_system.o
 .pdr           0x0000000000001420       0xe0 build/gcc/obj/example/example_tcpclient.o
 .pdr           0x0000000000001500        0x0 build/gcc/obj/example/example_http.o
 .pdr           0x0000000000001500        0x0 build/gcc/obj/example/example_dfota_http.o
 .pdr           0x0000000000001500        0x0 build/gcc/obj/example/example_ftp.o
 .pdr           0x0000000000001500        0x0 build/gcc/obj/example/example_float_math.o
 .pdr           0x0000000000001500        0x0 build/gcc/obj/example/example_call.o
 .pdr           0x0000000000001500        0x0 build/gcc/obj/example/example_memory.o
 .pdr           0x0000000000001500        0x0 build/gcc/obj/example/example_udpserver.o
 .pdr           0x0000000000001500        0x0 build/gcc/obj/example/example_multitask.o
 .pdr           0x0000000000001500        0x0 build/gcc/obj/example/example_gpio.o
 .pdr           0x0000000000001500        0x0 build/gcc/obj/example/example_adc.o
 .pdr           0x0000000000001500       0x40 build/gcc/obj/example/debug.o
 .pdr           0x0000000000001540        0x0 build/gcc/obj/example/example_clk.o
 .pdr           0x0000000000001540        0x0 build/gcc/obj/example/example_transpass.o
 .pdr           0x0000000000001540        0x0 build/gcc/obj/example/example_alarm.o
 .pdr           0x0000000000001540        0x0 build/gcc/obj/example/example_multitask_port.o
 .pdr           0x0000000000001540        0x0 build/gcc/obj/example/example_time.o
 .pdr           0x0000000000001540        0x0 build/gcc/obj/example/example_watchdog.o
 .pdr           0x0000000000001540        0x0 build/gcc/obj/example/example_timer.o
 .pdr           0x0000000000001540        0x0 build/gcc/obj/example/example_udpclient.o
 .pdr           0x0000000000001540        0x0 build/gcc/obj/example/example_mqtt.o
 .pdr           0x0000000000001540        0x0 build/gcc/obj/example/example_audio.o
 .pdr           0x0000000000001540        0x0 build/gcc/obj/example/example_tcpserver.o
 .pdr           0x0000000000001540        0x0 build/gcc/obj/example/example_eint.o
 .pdr           0x0000000000001540        0x0 build/gcc/obj/example/example_file.o
 .pdr           0x0000000000001540        0x0 build/gcc/obj/example/example_iic.o
 .pdr           0x0000000000001540        0x0 build/gcc/obj/example/example_location.o
 .pdr           0x0000000000001540        0x0 build/gcc/obj/custom/main.o
 .pdr           0x0000000000001540       0x40 build/gcc/obj/custom/dfota/src/dfota_main.o
 .pdr           0x0000000000001580       0x60 build/gcc/obj/custom/dfota/src/dfota_ftp.o
 .pdr           0x00000000000015e0       0xa0 build/gcc/obj/custom/dfota/src/dfota_http_code.o
 .pdr           0x0000000000001680      0x220 build/gcc/obj/custom/dfota/src/dfota_http.o
 .pdr           0x00000000000018a0       0x80 libs/gcc/app_start.lib(timer.o)
 .pdr           0x0000000000001920      0x160 libs/gcc/app_start.lib(gprs.o)
 .pdr           0x0000000000001a80      0x160 libs/gcc/app_start.lib(ql_func.o)
 .pdr           0x0000000000001be0      0x200 libs/gcc/app_start.lib(taskMngt.o)
 .pdr           0x0000000000001de0       0xa0 libs/gcc/app_start.lib(fota.o)
 .pdr           0x0000000000001e80       0x80 libs/gcc/app_start.lib(ql_main.o)
 .pdr           0x0000000000001f00       0x40 libs/gcc/app_start.lib(memory.o)
 .pdr           0x0000000000001f40      0x200 libs/gcc/app_start.lib(ril_main.o)
 .pdr           0x0000000000002140       0x20 libs/gcc/app_start.lib(ril_aux.o)
 .pdr           0x0000000000002160       0x20 libs/gcc/app_start.lib(ocpi_init.o)
 .pdr           0x0000000000002180      0x340 libs/gcc/app_start.lib(fileSys.o)
 .pdr           0x00000000000024c0      0x220 libs/gcc/app_start.lib(lib_ril_sms.o)
 .pdr           0x00000000000026e0      0x2c0 libs/gcc/app_start.lib(stdlib_func.o)
 .pdr           0x00000000000029a0       0xe0 libs/gcc/app_start.lib(system.o)
 .pdr           0x0000000000002a80      0x220 libs/gcc/app_start.lib(uart.o)
 .pdr           0x0000000000002ca0      0x260 libs/gcc/app_start.lib(socket.o)
 .pdr           0x0000000000002f00       0x20 C:\CSDTK4\/mips-elf-4.4.2/lib/gcc/mips-elf/4.4.2/libgcc.a(_df_to_si.o)
 .pdr           0x0000000000002f20       0x20 C:\CSDTK4\/mips-elf-4.4.2/lib/gcc/mips-elf/4.4.2/libgcc.a(_df_to_sf.o)
 .pdr           0x0000000000002f40       0x20 C:\CSDTK4\/mips-elf-4.4.2/lib/gcc/mips-elf/4.4.2/libgcc.a(_lshrdi3.o)
 .pdr           0x0000000000002f60       0x20 C:\CSDTK4\/mips-elf-4.4.2/lib/gcc/mips-elf/4.4.2/libgcc.a(_make_sf.o)
 .pdr           0x0000000000002f80       0x20 C:\CSDTK4\/mips-elf-4.4.2/lib/gcc/mips-elf/4.4.2/libgcc.a(_unpack_df.o)
 .pdr           0x0000000000002fa0       0x20 C:\CSDTK4\/mips-elf-4.4.2/lib/gcc/mips-elf/4.4.2/libgcc.a(_pack_sf.o)

.mdebug.abi32   0x0000000000000000        0x0
 .mdebug.abi32  0x0000000000000000        0x0 build/gcc/obj/custom/config/custom_sys_cfg.o
 .mdebug.abi32  0x0000000000000000        0x0 build/gcc/obj/custom/config/sys_config.o
 .mdebug.abi32  0x0000000000000000        0x0 build/gcc/obj/ril/src/ril_audio.o
 .mdebug.abi32  0x0000000000000000        0x0 build/gcc/obj/ril/src/ril_custom.o
 .mdebug.abi32  0x0000000000000000        0x0 build/gcc/obj/ril/src/ril_http.o
 .mdebug.abi32  0x0000000000000000        0x0 build/gcc/obj/ril/src/ril_urc.o
 .mdebug.abi32  0x0000000000000000        0x0 build/gcc/obj/ril/src/ril_atResponse.o
 .mdebug.abi32  0x0000000000000000        0x0 build/gcc/obj/ril/src/ril_network.o
 .mdebug.abi32  0x0000000000000000        0x0 build/gcc/obj/ril/src/ril_location.o
 .mdebug.abi32  0x0000000000000000        0x0 build/gcc/obj/ril/src/ril_ntp.o
 .mdebug.abi32  0x0000000000000000        0x0 build/gcc/obj/ril/src/ril_telephony.o
 .mdebug.abi32  0x0000000000000000        0x0 build/gcc/obj/ril/src/ril_sms.o
 .mdebug.abi32  0x0000000000000000        0x0 build/gcc/obj/ril/src/ril_system.o
 .mdebug.abi32  0x0000000000000000        0x0 build/gcc/obj/ril/src/Ril_dtmf.o
 .mdebug.abi32  0x0000000000000000        0x0 build/gcc/obj/ril/src/ril_sim.o
 .mdebug.abi32  0x0000000000000000        0x0 build/gcc/obj/ril/src/ril_location2.o
 .mdebug.abi32  0x0000000000000000        0x0 build/gcc/obj/ril/src/ril_init.o
 .mdebug.abi32  0x0000000000000000        0x0 build/gcc/obj/ril/src/ril_ftp.o
 .mdebug.abi32  0x0000000000000000        0x0 build/gcc/obj/ril/src/ril_alarm.o
 .mdebug.abi32  0x0000000000000000        0x0 build/gcc/obj/ril/src/ril_util.o
 .mdebug.abi32  0x0000000000000000        0x0 build/gcc/obj/ril/src/ril_mqtt.o
 .mdebug.abi32  0x0000000000000000        0x0 build/gcc/obj/example/example_location2.o
 .mdebug.abi32  0x0000000000000000        0x0 build/gcc/obj/example/example_dfota_ftp.o
 .mdebug.abi32  0x0000000000000000        0x0 build/gcc/obj/example/example_sms.o
 .mdebug.abi32  0x0000000000000000        0x0 build/gcc/obj/example/example_tcp_demo.o
 .mdebug.abi32  0x0000000000000000        0x0 build/gcc/obj/example/example_spi.o
 .mdebug.abi32  0x0000000000000000        0x0 build/gcc/obj/example/example_system.o
 .mdebug.abi32  0x0000000000000000        0x0 build/gcc/obj/example/example_tcpclient.o
 .mdebug.abi32  0x0000000000000000        0x0 build/gcc/obj/example/example_http.o
 .mdebug.abi32  0x0000000000000000        0x0 build/gcc/obj/example/example_dfota_http.o
 .mdebug.abi32  0x0000000000000000        0x0 build/gcc/obj/example/example_ftp.o
 .mdebug.abi32  0x0000000000000000        0x0 build/gcc/obj/example/example_float_math.o
 .mdebug.abi32  0x0000000000000000        0x0 build/gcc/obj/example/example_call.o
 .mdebug.abi32  0x0000000000000000        0x0 build/gcc/obj/example/example_memory.o
 .mdebug.abi32  0x0000000000000000        0x0 build/gcc/obj/example/example_udpserver.o
 .mdebug.abi32  0x0000000000000000        0x0 build/gcc/obj/example/example_multitask.o
 .mdebug.abi32  0x0000000000000000        0x0 build/gcc/obj/example/example_gpio.o
 .mdebug.abi32  0x0000000000000000        0x0 build/gcc/obj/example/example_adc.o
 .mdebug.abi32  0x0000000000000000        0x0 build/gcc/obj/example/debug.o
 .mdebug.abi32  0x0000000000000000        0x0 build/gcc/obj/example/example_clk.o
 .mdebug.abi32  0x0000000000000000        0x0 build/gcc/obj/example/example_transpass.o
 .mdebug.abi32  0x0000000000000000        0x0 build/gcc/obj/example/example_alarm.o
 .mdebug.abi32  0x0000000000000000        0x0 build/gcc/obj/example/example_multitask_port.o
 .mdebug.abi32  0x0000000000000000        0x0 build/gcc/obj/example/example_time.o
 .mdebug.abi32  0x0000000000000000        0x0 build/gcc/obj/example/example_watchdog.o
 .mdebug.abi32  0x0000000000000000        0x0 build/gcc/obj/example/example_timer.o
 .mdebug.abi32  0x0000000000000000        0x0 build/gcc/obj/example/example_udpclient.o
 .mdebug.abi32  0x0000000000000000        0x0 build/gcc/obj/example/example_mqtt.o
 .mdebug.abi32  0x0000000000000000        0x0 build/gcc/obj/example/example_audio.o
 .mdebug.abi32  0x0000000000000000        0x0 build/gcc/obj/example/example_tcpserver.o
 .mdebug.abi32  0x0000000000000000        0x0 build/gcc/obj/example/example_eint.o
 .mdebug.abi32  0x0000000000000000        0x0 build/gcc/obj/example/example_file.o
 .mdebug.abi32  0x0000000000000000        0x0 build/gcc/obj/example/example_iic.o
 .mdebug.abi32  0x0000000000000000        0x0 build/gcc/obj/example/example_location.o
 .mdebug.abi32  0x0000000000000000        0x0 build/gcc/obj/custom/main.o
 .mdebug.abi32  0x0000000000000000        0x0 build/gcc/obj/custom/dfota/src/dfota_main.o
 .mdebug.abi32  0x0000000000000000        0x0 build/gcc/obj/custom/dfota/src/dfota_ftp.o
 .mdebug.abi32  0x0000000000000000        0x0 build/gcc/obj/custom/dfota/src/dfota_http_code.o
 .mdebug.abi32  0x0000000000000000        0x0 build/gcc/obj/custom/dfota/src/dfota_http.o
 .mdebug.abi32  0x0000000000000000        0x0 libs/gcc/app_start.lib(timer.o)
 .mdebug.abi32  0x0000000000000000        0x0 libs/gcc/app_start.lib(gprs.o)
 .mdebug.abi32  0x0000000000000000        0x0 libs/gcc/app_start.lib(ql_func.o)
 .mdebug.abi32  0x0000000000000000        0x0 libs/gcc/app_start.lib(taskMngt.o)
 .mdebug.abi32  0x0000000000000000        0x0 libs/gcc/app_start.lib(fota.o)
 .mdebug.abi32  0x0000000000000000        0x0 libs/gcc/app_start.lib(ql_main.o)
 .mdebug.abi32  0x0000000000000000        0x0 libs/gcc/app_start.lib(memory.o)
 .mdebug.abi32  0x0000000000000000        0x0 libs/gcc/app_start.lib(ril_main.o)
 .mdebug.abi32  0x0000000000000000        0x0 libs/gcc/app_start.lib(ril_aux.o)
 .mdebug.abi32  0x0000000000000000        0x0 libs/gcc/app_start.lib(ocpi_init.o)
 .mdebug.abi32  0x0000000000000000        0x0 libs/gcc/app_start.lib(fileSys.o)
 .mdebug.abi32  0x0000000000000000        0x0 libs/gcc/app_start.lib(lib_ril_sms.o)
 .mdebug.abi32  0x0000000000000000        0x0 libs/gcc/app_start.lib(stdlib_func.o)
 .mdebug.abi32  0x0000000000000000        0x0 libs/gcc/app_start.lib(system.o)
 .mdebug.abi32  0x0000000000000000        0x0 libs/gcc/app_start.lib(uart.o)
 .mdebug.abi32  0x0000000000000000        0x0 libs/gcc/app_start.lib(socket.o)
 .mdebug.abi32  0x0000000000000000        0x0 C:\CSDTK4\/mips-elf-4.4.2/lib/gcc/mips-elf/4.4.2/libgcc.a(_df_to_si.o)
 .mdebug.abi32  0x0000000000000000        0x0 C:\CSDTK4\/mips-elf-4.4.2/lib/gcc/mips-elf/4.4.2/libgcc.a(_df_to_sf.o)
 .mdebug.abi32  0x0000000000000000        0x0 C:\CSDTK4\/mips-elf-4.4.2/lib/gcc/mips-elf/4.4.2/libgcc.a(_lshrdi3.o)
 .mdebug.abi32  0x0000000000000000        0x0 C:\CSDTK4\/mips-elf-4.4.2/lib/gcc/mips-elf/4.4.2/libgcc.a(_make_sf.o)
 .mdebug.abi32  0x0000000000000000        0x0 C:\CSDTK4\/mips-elf-4.4.2/lib/gcc/mips-elf/4.4.2/libgcc.a(_unpack_df.o)
 .mdebug.abi32  0x0000000000000000        0x0 C:\CSDTK4\/mips-elf-4.4.2/lib/gcc/mips-elf/4.4.2/libgcc.a(_pack_sf.o)

.comment        0x0000000000000000       0x25
 .comment       0x0000000000000000       0x25 build/gcc/obj/custom/config/custom_sys_cfg.o
                                         0x26 (size before relaxing)
 .comment       0x0000000000000000       0x26 build/gcc/obj/custom/config/sys_config.o
 .comment       0x0000000000000000       0x26 build/gcc/obj/ril/src/ril_audio.o
 .comment       0x0000000000000000       0x26 build/gcc/obj/ril/src/ril_custom.o
 .comment       0x0000000000000000       0x26 build/gcc/obj/ril/src/ril_http.o
 .comment       0x0000000000000000       0x26 build/gcc/obj/ril/src/ril_urc.o
 .comment       0x0000000000000000       0x26 build/gcc/obj/ril/src/ril_atResponse.o
 .comment       0x0000000000000000       0x26 build/gcc/obj/ril/src/ril_network.o
 .comment       0x0000000000000000       0x26 build/gcc/obj/ril/src/ril_location.o
 .comment       0x0000000000000000       0x26 build/gcc/obj/ril/src/ril_ntp.o
 .comment       0x0000000000000000       0x26 build/gcc/obj/ril/src/ril_telephony.o
 .comment       0x0000000000000000       0x26 build/gcc/obj/ril/src/ril_sms.o
 .comment       0x0000000000000000       0x26 build/gcc/obj/ril/src/ril_system.o
 .comment       0x0000000000000000       0x26 build/gcc/obj/ril/src/Ril_dtmf.o
 .comment       0x0000000000000000       0x26 build/gcc/obj/ril/src/ril_sim.o
 .comment       0x0000000000000000       0x26 build/gcc/obj/ril/src/ril_location2.o
 .comment       0x0000000000000000       0x26 build/gcc/obj/ril/src/ril_init.o
 .comment       0x0000000000000000       0x26 build/gcc/obj/ril/src/ril_ftp.o
 .comment       0x0000000000000000       0x26 build/gcc/obj/ril/src/ril_alarm.o
 .comment       0x0000000000000000       0x26 build/gcc/obj/ril/src/ril_util.o
 .comment       0x0000000000000000       0x26 build/gcc/obj/ril/src/ril_mqtt.o
 .comment       0x0000000000000000       0x26 build/gcc/obj/example/example_location2.o
 .comment       0x0000000000000000       0x26 build/gcc/obj/example/example_dfota_ftp.o
 .comment       0x0000000000000000       0x26 build/gcc/obj/example/example_sms.o
 .comment       0x0000000000000000       0x26 build/gcc/obj/example/example_tcp_demo.o
 .comment       0x0000000000000000       0x26 build/gcc/obj/example/example_spi.o
 .comment       0x0000000000000000       0x26 build/gcc/obj/example/example_system.o
 .comment       0x0000000000000000       0x26 build/gcc/obj/example/example_tcpclient.o
 .comment       0x0000000000000000       0x26 build/gcc/obj/example/example_http.o
 .comment       0x0000000000000000       0x26 build/gcc/obj/example/example_dfota_http.o
 .comment       0x0000000000000000       0x26 build/gcc/obj/example/example_ftp.o
 .comment       0x0000000000000000       0x26 build/gcc/obj/example/example_float_math.o
 .comment       0x0000000000000000       0x26 build/gcc/obj/example/example_call.o
 .comment       0x0000000000000000       0x26 build/gcc/obj/example/example_memory.o
 .comment       0x0000000000000000       0x26 build/gcc/obj/example/example_udpserver.o
 .comment       0x0000000000000000       0x26 build/gcc/obj/example/example_multitask.o
 .comment       0x0000000000000000       0x26 build/gcc/obj/example/example_gpio.o
 .comment       0x0000000000000000       0x26 build/gcc/obj/example/example_adc.o
 .comment       0x0000000000000000       0x26 build/gcc/obj/example/debug.o
 .comment       0x0000000000000000       0x26 build/gcc/obj/example/example_clk.o
 .comment       0x0000000000000000       0x26 build/gcc/obj/example/example_transpass.o
 .comment       0x0000000000000000       0x26 build/gcc/obj/example/example_alarm.o
 .comment       0x0000000000000000       0x26 build/gcc/obj/example/example_multitask_port.o
 .comment       0x0000000000000000       0x26 build/gcc/obj/example/example_time.o
 .comment       0x0000000000000000       0x26 build/gcc/obj/example/example_watchdog.o
 .comment       0x0000000000000000       0x26 build/gcc/obj/example/example_timer.o
 .comment       0x0000000000000000       0x26 build/gcc/obj/example/example_udpclient.o
 .comment       0x0000000000000000       0x26 build/gcc/obj/example/example_mqtt.o
 .comment       0x0000000000000000       0x26 build/gcc/obj/example/example_audio.o
 .comment       0x0000000000000000       0x26 build/gcc/obj/example/example_tcpserver.o
 .comment       0x0000000000000000       0x26 build/gcc/obj/example/example_eint.o
 .comment       0x0000000000000000       0x26 build/gcc/obj/example/example_file.o
 .comment       0x0000000000000000       0x26 build/gcc/obj/example/example_iic.o
 .comment       0x0000000000000000       0x26 build/gcc/obj/example/example_location.o
 .comment       0x0000000000000000       0x26 build/gcc/obj/custom/main.o
 .comment       0x0000000000000000       0x26 build/gcc/obj/custom/dfota/src/dfota_main.o
 .comment       0x0000000000000000       0x26 build/gcc/obj/custom/dfota/src/dfota_ftp.o
 .comment       0x0000000000000000       0x26 build/gcc/obj/custom/dfota/src/dfota_http_code.o
 .comment       0x0000000000000000       0x26 build/gcc/obj/custom/dfota/src/dfota_http.o
 .comment       0x0000000000000000       0x26 libs/gcc/app_start.lib(timer.o)
 .comment       0x0000000000000000       0x26 libs/gcc/app_start.lib(gprs.o)
 .comment       0x0000000000000000       0x26 libs/gcc/app_start.lib(ql_func.o)
 .comment       0x0000000000000000       0x26 libs/gcc/app_start.lib(taskMngt.o)
 .comment       0x0000000000000000       0x26 libs/gcc/app_start.lib(fota.o)
 .comment       0x0000000000000000       0x26 libs/gcc/app_start.lib(ql_main.o)
 .comment       0x0000000000000000       0x26 libs/gcc/app_start.lib(memory.o)
 .comment       0x0000000000000000       0x26 libs/gcc/app_start.lib(ril_main.o)
 .comment       0x0000000000000000       0x26 libs/gcc/app_start.lib(ril_aux.o)
 .comment       0x0000000000000000       0x26 libs/gcc/app_start.lib(ocpi_init.o)
 .comment       0x0000000000000000       0x26 libs/gcc/app_start.lib(fileSys.o)
 .comment       0x0000000000000000       0x26 libs/gcc/app_start.lib(lib_ril_sms.o)
 .comment       0x0000000000000000       0x26 libs/gcc/app_start.lib(stdlib_func.o)
 .comment       0x0000000000000000       0x26 libs/gcc/app_start.lib(system.o)
 .comment       0x0000000000000000       0x26 libs/gcc/app_start.lib(uart.o)
 .comment       0x0000000000000000       0x26 libs/gcc/app_start.lib(socket.o)
 .comment       0x0000000000000000       0x26 C:\CSDTK4\/mips-elf-4.4.2/lib/gcc/mips-elf/4.4.2/libgcc.a(_df_to_si.o)
 .comment       0x0000000000000000       0x26 C:\CSDTK4\/mips-elf-4.4.2/lib/gcc/mips-elf/4.4.2/libgcc.a(_df_to_sf.o)
 .comment       0x0000000000000000       0x26 C:\CSDTK4\/mips-elf-4.4.2/lib/gcc/mips-elf/4.4.2/libgcc.a(_lshrdi3.o)
 .comment       0x0000000000000000       0x26 C:\CSDTK4\/mips-elf-4.4.2/lib/gcc/mips-elf/4.4.2/libgcc.a(_make_sf.o)
 .comment       0x0000000000000000       0x26 C:\CSDTK4\/mips-elf-4.4.2/lib/gcc/mips-elf/4.4.2/libgcc.a(_unpack_df.o)
 .comment       0x0000000000000000       0x26 C:\CSDTK4\/mips-elf-4.4.2/lib/gcc/mips-elf/4.4.2/libgcc.a(_pack_sf.o)

.gnu.attributes
                0x0000000000000000       0x10
 .gnu.attributes
                0x0000000000000000       0x10 build/gcc/obj/custom/config/custom_sys_cfg.o
 .gnu.attributes
                0x0000000000000010       0x10 build/gcc/obj/custom/config/sys_config.o
 .gnu.attributes
                0x0000000000000020       0x10 build/gcc/obj/ril/src/ril_audio.o
 .gnu.attributes
                0x0000000000000030       0x10 build/gcc/obj/ril/src/ril_custom.o
 .gnu.attributes
                0x0000000000000040       0x10 build/gcc/obj/ril/src/ril_http.o
 .gnu.attributes
                0x0000000000000050       0x10 build/gcc/obj/ril/src/ril_urc.o
 .gnu.attributes
                0x0000000000000060       0x10 build/gcc/obj/ril/src/ril_atResponse.o
 .gnu.attributes
                0x0000000000000070       0x10 build/gcc/obj/ril/src/ril_network.o
 .gnu.attributes
                0x0000000000000080       0x10 build/gcc/obj/ril/src/ril_location.o
 .gnu.attributes
                0x0000000000000090       0x10 build/gcc/obj/ril/src/ril_ntp.o
 .gnu.attributes
                0x00000000000000a0       0x10 build/gcc/obj/ril/src/ril_telephony.o
 .gnu.attributes
                0x00000000000000b0       0x10 build/gcc/obj/ril/src/ril_sms.o
 .gnu.attributes
                0x00000000000000c0       0x10 build/gcc/obj/ril/src/ril_system.o
 .gnu.attributes
                0x00000000000000d0       0x10 build/gcc/obj/ril/src/Ril_dtmf.o
 .gnu.attributes
                0x00000000000000e0       0x10 build/gcc/obj/ril/src/ril_sim.o
 .gnu.attributes
                0x00000000000000f0       0x10 build/gcc/obj/ril/src/ril_location2.o
 .gnu.attributes
                0x0000000000000100       0x10 build/gcc/obj/ril/src/ril_init.o
 .gnu.attributes
                0x0000000000000110       0x10 build/gcc/obj/ril/src/ril_ftp.o
 .gnu.attributes
                0x0000000000000120       0x10 build/gcc/obj/ril/src/ril_alarm.o
 .gnu.attributes
                0x0000000000000130       0x10 build/gcc/obj/ril/src/ril_util.o
 .gnu.attributes
                0x0000000000000140       0x10 build/gcc/obj/ril/src/ril_mqtt.o
 .gnu.attributes
                0x0000000000000150       0x10 build/gcc/obj/example/example_location2.o
 .gnu.attributes
                0x0000000000000160       0x10 build/gcc/obj/example/example_dfota_ftp.o
 .gnu.attributes
                0x0000000000000170       0x10 build/gcc/obj/example/example_sms.o
 .gnu.attributes
                0x0000000000000180       0x10 build/gcc/obj/example/example_tcp_demo.o
 .gnu.attributes
                0x0000000000000190       0x10 build/gcc/obj/example/example_spi.o
 .gnu.attributes
                0x00000000000001a0       0x10 build/gcc/obj/example/example_system.o
 .gnu.attributes
                0x00000000000001b0       0x10 build/gcc/obj/example/example_tcpclient.o
 .gnu.attributes
                0x00000000000001c0       0x10 build/gcc/obj/example/example_http.o
 .gnu.attributes
                0x00000000000001d0       0x10 build/gcc/obj/example/example_dfota_http.o
 .gnu.attributes
                0x00000000000001e0       0x10 build/gcc/obj/example/example_ftp.o
 .gnu.attributes
                0x00000000000001f0       0x10 build/gcc/obj/example/example_float_math.o
 .gnu.attributes
                0x0000000000000200       0x10 build/gcc/obj/example/example_call.o
 .gnu.attributes
                0x0000000000000210       0x10 build/gcc/obj/example/example_memory.o
 .gnu.attributes
                0x0000000000000220       0x10 build/gcc/obj/example/example_udpserver.o
 .gnu.attributes
                0x0000000000000230       0x10 build/gcc/obj/example/example_multitask.o
 .gnu.attributes
                0x0000000000000240       0x10 build/gcc/obj/example/example_gpio.o
 .gnu.attributes
                0x0000000000000250       0x10 build/gcc/obj/example/example_adc.o
 .gnu.attributes
                0x0000000000000260       0x10 build/gcc/obj/example/debug.o
 .gnu.attributes
                0x0000000000000270       0x10 build/gcc/obj/example/example_clk.o
 .gnu.attributes
                0x0000000000000280       0x10 build/gcc/obj/example/example_transpass.o
 .gnu.attributes
                0x0000000000000290       0x10 build/gcc/obj/example/example_alarm.o
 .gnu.attributes
                0x00000000000002a0       0x10 build/gcc/obj/example/example_multitask_port.o
 .gnu.attributes
                0x00000000000002b0       0x10 build/gcc/obj/example/example_time.o
 .gnu.attributes
                0x00000000000002c0       0x10 build/gcc/obj/example/example_watchdog.o
 .gnu.attributes
                0x00000000000002d0       0x10 build/gcc/obj/example/example_timer.o
 .gnu.attributes
                0x00000000000002e0       0x10 build/gcc/obj/example/example_udpclient.o
 .gnu.attributes
                0x00000000000002f0       0x10 build/gcc/obj/example/example_mqtt.o
 .gnu.attributes
                0x0000000000000300       0x10 build/gcc/obj/example/example_audio.o
 .gnu.attributes
                0x0000000000000310       0x10 build/gcc/obj/example/example_tcpserver.o
 .gnu.attributes
                0x0000000000000320       0x10 build/gcc/obj/example/example_eint.o
 .gnu.attributes
                0x0000000000000330       0x10 build/gcc/obj/example/example_file.o
 .gnu.attributes
                0x0000000000000340       0x10 build/gcc/obj/example/example_iic.o
 .gnu.attributes
                0x0000000000000350       0x10 build/gcc/obj/example/example_location.o
 .gnu.attributes
                0x0000000000000360       0x10 build/gcc/obj/custom/main.o
 .gnu.attributes
                0x0000000000000370       0x10 build/gcc/obj/custom/dfota/src/dfota_main.o
 .gnu.attributes
                0x0000000000000380       0x10 build/gcc/obj/custom/dfota/src/dfota_ftp.o
 .gnu.attributes
                0x0000000000000390       0x10 build/gcc/obj/custom/dfota/src/dfota_http_code.o
 .gnu.attributes
                0x00000000000003a0       0x10 build/gcc/obj/custom/dfota/src/dfota_http.o
 .gnu.attributes
                0x00000000000003b0       0x10 libs/gcc/app_start.lib(timer.o)
 .gnu.attributes
                0x00000000000003c0       0x10 libs/gcc/app_start.lib(gprs.o)
 .gnu.attributes
                0x00000000000003d0       0x10 libs/gcc/app_start.lib(ql_func.o)
 .gnu.attributes
                0x00000000000003e0       0x10 libs/gcc/app_start.lib(taskMngt.o)
 .gnu.attributes
                0x00000000000003f0       0x10 libs/gcc/app_start.lib(fota.o)
 .gnu.attributes
                0x0000000000000400       0x10 libs/gcc/app_start.lib(ql_main.o)
 .gnu.attributes
                0x0000000000000410       0x10 libs/gcc/app_start.lib(memory.o)
 .gnu.attributes
                0x0000000000000420       0x10 libs/gcc/app_start.lib(ril_main.o)
 .gnu.attributes
                0x0000000000000430       0x10 libs/gcc/app_start.lib(ril_aux.o)
 .gnu.attributes
                0x0000000000000440       0x10 libs/gcc/app_start.lib(ocpi_init.o)
 .gnu.attributes
                0x0000000000000450       0x10 libs/gcc/app_start.lib(fileSys.o)
 .gnu.attributes
                0x0000000000000460       0x10 libs/gcc/app_start.lib(lib_ril_sms.o)
 .gnu.attributes
                0x0000000000000470       0x10 libs/gcc/app_start.lib(stdlib_func.o)
 .gnu.attributes
                0x0000000000000480       0x10 libs/gcc/app_start.lib(system.o)
 .gnu.attributes
                0x0000000000000490       0x10 libs/gcc/app_start.lib(uart.o)
 .gnu.attributes
                0x00000000000004a0       0x10 libs/gcc/app_start.lib(socket.o)
 .gnu.attributes
                0x00000000000004b0       0x10 C:\CSDTK4\/mips-elf-4.4.2/lib/gcc/mips-elf/4.4.2/libgcc.a(_df_to_si.o)
 .gnu.attributes
                0x00000000000004c0       0x10 C:\CSDTK4\/mips-elf-4.4.2/lib/gcc/mips-elf/4.4.2/libgcc.a(_df_to_sf.o)
 .gnu.attributes
                0x00000000000004d0       0x10 C:\CSDTK4\/mips-elf-4.4.2/lib/gcc/mips-elf/4.4.2/libgcc.a(_lshrdi3.o)
 .gnu.attributes
                0x00000000000004e0       0x10 C:\CSDTK4\/mips-elf-4.4.2/lib/gcc/mips-elf/4.4.2/libgcc.a(_make_sf.o)
 .gnu.attributes
                0x00000000000004f0       0x10 C:\CSDTK4\/mips-elf-4.4.2/lib/gcc/mips-elf/4.4.2/libgcc.a(_unpack_df.o)
 .gnu.attributes
                0x0000000000000500       0x10 C:\CSDTK4\/mips-elf-4.4.2/lib/gcc/mips-elf/4.4.2/libgcc.a(_pack_sf.o)

.debug_abbrev   0x0000000000000000     0x4d1e
 .debug_abbrev  0x0000000000000000       0xe1 build/gcc/obj/custom/config/custom_sys_cfg.o
 .debug_abbrev  0x00000000000000e1       0xcf build/gcc/obj/custom/config/sys_config.o
 .debug_abbrev  0x00000000000001b0      0x244 build/gcc/obj/ril/src/ril_audio.o
 .debug_abbrev  0x00000000000003f4       0xa6 build/gcc/obj/ril/src/ril_custom.o
 .debug_abbrev  0x000000000000049a      0x149 build/gcc/obj/ril/src/ril_http.o
 .debug_abbrev  0x00000000000005e3      0x267 build/gcc/obj/ril/src/ril_urc.o
 .debug_abbrev  0x000000000000084a      0x11c build/gcc/obj/ril/src/ril_atResponse.o
 .debug_abbrev  0x0000000000000966      0x23e build/gcc/obj/ril/src/ril_network.o
 .debug_abbrev  0x0000000000000ba4      0x196 build/gcc/obj/ril/src/ril_location.o
 .debug_abbrev  0x0000000000000d3a      0x11c build/gcc/obj/ril/src/ril_ntp.o
 .debug_abbrev  0x0000000000000e56      0x180 build/gcc/obj/ril/src/ril_telephony.o
 .debug_abbrev  0x0000000000000fd6      0x29d build/gcc/obj/ril/src/ril_sms.o
 .debug_abbrev  0x0000000000001273      0x149 build/gcc/obj/ril/src/ril_system.o
 .debug_abbrev  0x00000000000013bc      0x1b1 build/gcc/obj/ril/src/Ril_dtmf.o
 .debug_abbrev  0x000000000000156d      0x216 build/gcc/obj/ril/src/ril_sim.o
 .debug_abbrev  0x0000000000001783      0x1a7 build/gcc/obj/ril/src/ril_location2.o
 .debug_abbrev  0x000000000000192a       0x8c build/gcc/obj/ril/src/ril_init.o
 .debug_abbrev  0x00000000000019b6      0x20b build/gcc/obj/ril/src/ril_ftp.o
 .debug_abbrev  0x0000000000001bc1      0x17f build/gcc/obj/ril/src/ril_alarm.o
 .debug_abbrev  0x0000000000001d40      0x14b build/gcc/obj/ril/src/ril_util.o
 .debug_abbrev  0x0000000000001e8b      0x207 build/gcc/obj/ril/src/ril_mqtt.o
 .debug_abbrev  0x0000000000002092        0x1 build/gcc/obj/example/example_location2.o
 .debug_abbrev  0x0000000000002093        0x1 build/gcc/obj/example/example_dfota_ftp.o
 .debug_abbrev  0x0000000000002094        0x1 build/gcc/obj/example/example_sms.o
 .debug_abbrev  0x0000000000002095        0x1 build/gcc/obj/example/example_tcp_demo.o
 .debug_abbrev  0x0000000000002096        0x1 build/gcc/obj/example/example_spi.o
 .debug_abbrev  0x0000000000002097        0x1 build/gcc/obj/example/example_system.o
 .debug_abbrev  0x0000000000002098      0x231 build/gcc/obj/example/example_tcpclient.o
 .debug_abbrev  0x00000000000022c9        0x1 build/gcc/obj/example/example_http.o
 .debug_abbrev  0x00000000000022ca        0x1 build/gcc/obj/example/example_dfota_http.o
 .debug_abbrev  0x00000000000022cb        0x1 build/gcc/obj/example/example_ftp.o
 .debug_abbrev  0x00000000000022cc        0x1 build/gcc/obj/example/example_float_math.o
 .debug_abbrev  0x00000000000022cd        0x1 build/gcc/obj/example/example_call.o
 .debug_abbrev  0x00000000000022ce        0x1 build/gcc/obj/example/example_memory.o
 .debug_abbrev  0x00000000000022cf        0x1 build/gcc/obj/example/example_udpserver.o
 .debug_abbrev  0x00000000000022d0        0x1 build/gcc/obj/example/example_multitask.o
 .debug_abbrev  0x00000000000022d1        0x1 build/gcc/obj/example/example_gpio.o
 .debug_abbrev  0x00000000000022d2        0x1 build/gcc/obj/example/example_adc.o
 .debug_abbrev  0x00000000000022d3      0x14f build/gcc/obj/example/debug.o
 .debug_abbrev  0x0000000000002422        0x1 build/gcc/obj/example/example_clk.o
 .debug_abbrev  0x0000000000002423        0x1 build/gcc/obj/example/example_transpass.o
 .debug_abbrev  0x0000000000002424        0x1 build/gcc/obj/example/example_alarm.o
 .debug_abbrev  0x0000000000002425        0x1 build/gcc/obj/example/example_multitask_port.o
 .debug_abbrev  0x0000000000002426        0x1 build/gcc/obj/example/example_time.o
 .debug_abbrev  0x0000000000002427        0x1 build/gcc/obj/example/example_watchdog.o
 .debug_abbrev  0x0000000000002428        0x1 build/gcc/obj/example/example_timer.o
 .debug_abbrev  0x0000000000002429        0x1 build/gcc/obj/example/example_udpclient.o
 .debug_abbrev  0x000000000000242a        0x1 build/gcc/obj/example/example_mqtt.o
 .debug_abbrev  0x000000000000242b        0x1 build/gcc/obj/example/example_audio.o
 .debug_abbrev  0x000000000000242c        0x1 build/gcc/obj/example/example_tcpserver.o
 .debug_abbrev  0x000000000000242d        0x1 build/gcc/obj/example/example_eint.o
 .debug_abbrev  0x000000000000242e        0x1 build/gcc/obj/example/example_file.o
 .debug_abbrev  0x000000000000242f        0x1 build/gcc/obj/example/example_iic.o
 .debug_abbrev  0x0000000000002430        0x1 build/gcc/obj/example/example_location.o
 .debug_abbrev  0x0000000000002431        0x1 build/gcc/obj/custom/main.o
 .debug_abbrev  0x0000000000002432      0x13f build/gcc/obj/custom/dfota/src/dfota_main.o
 .debug_abbrev  0x0000000000002571      0x1f6 build/gcc/obj/custom/dfota/src/dfota_ftp.o
 .debug_abbrev  0x0000000000002767      0x296 build/gcc/obj/custom/dfota/src/dfota_http_code.o
 .debug_abbrev  0x00000000000029fd      0x283 build/gcc/obj/custom/dfota/src/dfota_http.o
 .debug_abbrev  0x0000000000002c80       0xfd libs/gcc/app_start.lib(timer.o)
 .debug_abbrev  0x0000000000002d7d      0x151 libs/gcc/app_start.lib(gprs.o)
 .debug_abbrev  0x0000000000002ece      0x160 libs/gcc/app_start.lib(ql_func.o)
 .debug_abbrev  0x000000000000302e      0x141 libs/gcc/app_start.lib(taskMngt.o)
 .debug_abbrev  0x000000000000316f      0x121 libs/gcc/app_start.lib(fota.o)
 .debug_abbrev  0x0000000000003290      0x21d libs/gcc/app_start.lib(ql_main.o)
 .debug_abbrev  0x00000000000034ad      0x120 libs/gcc/app_start.lib(memory.o)
 .debug_abbrev  0x00000000000035cd      0x33e libs/gcc/app_start.lib(ril_main.o)
 .debug_abbrev  0x000000000000390b       0xe4 libs/gcc/app_start.lib(ril_aux.o)
 .debug_abbrev  0x00000000000039ef       0x88 libs/gcc/app_start.lib(ocpi_init.o)
 .debug_abbrev  0x0000000000003a77      0x16a libs/gcc/app_start.lib(fileSys.o)
 .debug_abbrev  0x0000000000003be1      0x2dc libs/gcc/app_start.lib(lib_ril_sms.o)
 .debug_abbrev  0x0000000000003ebd      0x223 libs/gcc/app_start.lib(stdlib_func.o)
 .debug_abbrev  0x00000000000040e0      0x145 libs/gcc/app_start.lib(system.o)
 .debug_abbrev  0x0000000000004225      0x18d libs/gcc/app_start.lib(uart.o)
 .debug_abbrev  0x00000000000043b2      0x17d libs/gcc/app_start.lib(socket.o)
 .debug_abbrev  0x000000000000452f      0x17f C:\CSDTK4\/mips-elf-4.4.2/lib/gcc/mips-elf/4.4.2/libgcc.a(_df_to_si.o)
 .debug_abbrev  0x00000000000046ae      0x140 C:\CSDTK4\/mips-elf-4.4.2/lib/gcc/mips-elf/4.4.2/libgcc.a(_df_to_sf.o)
 .debug_abbrev  0x00000000000047ee      0x104 C:\CSDTK4\/mips-elf-4.4.2/lib/gcc/mips-elf/4.4.2/libgcc.a(_lshrdi3.o)
 .debug_abbrev  0x00000000000048f2      0x109 C:\CSDTK4\/mips-elf-4.4.2/lib/gcc/mips-elf/4.4.2/libgcc.a(_make_sf.o)
 .debug_abbrev  0x00000000000049fb      0x163 C:\CSDTK4\/mips-elf-4.4.2/lib/gcc/mips-elf/4.4.2/libgcc.a(_unpack_df.o)
 .debug_abbrev  0x0000000000004b5e      0x1c0 C:\CSDTK4\/mips-elf-4.4.2/lib/gcc/mips-elf/4.4.2/libgcc.a(_pack_sf.o)

.debug_info     0x0000000000000000    0x172c8
 .debug_info    0x0000000000000000      0x2e6 build/gcc/obj/custom/config/custom_sys_cfg.o
 .debug_info    0x00000000000002e6      0x274 build/gcc/obj/custom/config/sys_config.o
 .debug_info    0x000000000000055a      0x9db build/gcc/obj/ril/src/ril_audio.o
 .debug_info    0x0000000000000f35      0x109 build/gcc/obj/ril/src/ril_custom.o
 .debug_info    0x000000000000103e      0x4a0 build/gcc/obj/ril/src/ril_http.o
 .debug_info    0x00000000000014de      0xe17 build/gcc/obj/ril/src/ril_urc.o
 .debug_info    0x00000000000022f5      0x175 build/gcc/obj/ril/src/ril_atResponse.o
 .debug_info    0x000000000000246a      0x88e build/gcc/obj/ril/src/ril_network.o
 .debug_info    0x0000000000002cf8      0x43c build/gcc/obj/ril/src/ril_location.o
 .debug_info    0x0000000000003134      0x1f8 build/gcc/obj/ril/src/ril_ntp.o
 .debug_info    0x000000000000332c      0x30c build/gcc/obj/ril/src/ril_telephony.o
 .debug_info    0x0000000000003638     0x1955 build/gcc/obj/ril/src/ril_sms.o
 .debug_info    0x0000000000004f8d      0x424 build/gcc/obj/ril/src/ril_system.o
 .debug_info    0x00000000000053b1      0x547 build/gcc/obj/ril/src/Ril_dtmf.o
 .debug_info    0x00000000000058f8      0x46e build/gcc/obj/ril/src/ril_sim.o
 .debug_info    0x0000000000005d66      0x56f build/gcc/obj/ril/src/ril_location2.o
 .debug_info    0x00000000000062d5       0xf4 build/gcc/obj/ril/src/ril_init.o
 .debug_info    0x00000000000063c9      0xbc1 build/gcc/obj/ril/src/ril_ftp.o
 .debug_info    0x0000000000006f8a      0x5ba build/gcc/obj/ril/src/ril_alarm.o
 .debug_info    0x0000000000007544      0x33c build/gcc/obj/ril/src/ril_util.o
 .debug_info    0x0000000000007880      0x7b8 build/gcc/obj/ril/src/ril_mqtt.o
 .debug_info    0x0000000000008038        0x0 build/gcc/obj/example/example_location2.o
 .debug_info    0x0000000000008038        0x0 build/gcc/obj/example/example_dfota_ftp.o
 .debug_info    0x0000000000008038        0x0 build/gcc/obj/example/example_sms.o
 .debug_info    0x0000000000008038        0x0 build/gcc/obj/example/example_tcp_demo.o
 .debug_info    0x0000000000008038        0x0 build/gcc/obj/example/example_spi.o
 .debug_info    0x0000000000008038        0x0 build/gcc/obj/example/example_system.o
 .debug_info    0x0000000000008038      0x97e build/gcc/obj/example/example_tcpclient.o
 .debug_info    0x00000000000089b6        0x0 build/gcc/obj/example/example_http.o
 .debug_info    0x00000000000089b6        0x0 build/gcc/obj/example/example_dfota_http.o
 .debug_info    0x00000000000089b6        0x0 build/gcc/obj/example/example_ftp.o
 .debug_info    0x00000000000089b6        0x0 build/gcc/obj/example/example_float_math.o
 .debug_info    0x00000000000089b6        0x0 build/gcc/obj/example/example_call.o
 .debug_info    0x00000000000089b6        0x0 build/gcc/obj/example/example_memory.o
 .debug_info    0x00000000000089b6        0x0 build/gcc/obj/example/example_udpserver.o
 .debug_info    0x00000000000089b6        0x0 build/gcc/obj/example/example_multitask.o
 .debug_info    0x00000000000089b6        0x0 build/gcc/obj/example/example_gpio.o
 .debug_info    0x00000000000089b6        0x0 build/gcc/obj/example/example_adc.o
 .debug_info    0x00000000000089b6      0x288 build/gcc/obj/example/debug.o
 .debug_info    0x0000000000008c3e        0x0 build/gcc/obj/example/example_clk.o
 .debug_info    0x0000000000008c3e        0x0 build/gcc/obj/example/example_transpass.o
 .debug_info    0x0000000000008c3e        0x0 build/gcc/obj/example/example_alarm.o
 .debug_info    0x0000000000008c3e        0x0 build/gcc/obj/example/example_multitask_port.o
 .debug_info    0x0000000000008c3e        0x0 build/gcc/obj/example/example_time.o
 .debug_info    0x0000000000008c3e        0x0 build/gcc/obj/example/example_watchdog.o
 .debug_info    0x0000000000008c3e        0x0 build/gcc/obj/example/example_timer.o
 .debug_info    0x0000000000008c3e        0x0 build/gcc/obj/example/example_udpclient.o
 .debug_info    0x0000000000008c3e        0x0 build/gcc/obj/example/example_mqtt.o
 .debug_info    0x0000000000008c3e        0x0 build/gcc/obj/example/example_audio.o
 .debug_info    0x0000000000008c3e        0x0 build/gcc/obj/example/example_tcpserver.o
 .debug_info    0x0000000000008c3e        0x0 build/gcc/obj/example/example_eint.o
 .debug_info    0x0000000000008c3e        0x0 build/gcc/obj/example/example_file.o
 .debug_info    0x0000000000008c3e        0x0 build/gcc/obj/example/example_iic.o
 .debug_info    0x0000000000008c3e        0x0 build/gcc/obj/example/example_location.o
 .debug_info    0x0000000000008c3e        0x0 build/gcc/obj/custom/main.o
 .debug_info    0x0000000000008c3e      0x394 build/gcc/obj/custom/dfota/src/dfota_main.o
 .debug_info    0x0000000000008fd2      0x95a build/gcc/obj/custom/dfota/src/dfota_ftp.o
 .debug_info    0x000000000000992c      0x961 build/gcc/obj/custom/dfota/src/dfota_http_code.o
 .debug_info    0x000000000000a28d      0xe0b build/gcc/obj/custom/dfota/src/dfota_http.o
 .debug_info    0x000000000000b098      0x5be libs/gcc/app_start.lib(timer.o)
 .debug_info    0x000000000000b656      0x997 libs/gcc/app_start.lib(gprs.o)
 .debug_info    0x000000000000bfed      0xa4e libs/gcc/app_start.lib(ql_func.o)
 .debug_info    0x000000000000ca3b      0xacc libs/gcc/app_start.lib(taskMngt.o)
 .debug_info    0x000000000000d507      0x62b libs/gcc/app_start.lib(fota.o)
 .debug_info    0x000000000000db32      0x852 libs/gcc/app_start.lib(ql_main.o)
 .debug_info    0x000000000000e384      0x1e4 libs/gcc/app_start.lib(memory.o)
 .debug_info    0x000000000000e568      0xc9f libs/gcc/app_start.lib(ril_main.o)
 .debug_info    0x000000000000f207      0x16d libs/gcc/app_start.lib(ril_aux.o)
 .debug_info    0x000000000000f374       0xf7 libs/gcc/app_start.lib(ocpi_init.o)
 .debug_info    0x000000000000f46b     0x10d1 libs/gcc/app_start.lib(fileSys.o)
 .debug_info    0x000000000001053c     0x2c68 libs/gcc/app_start.lib(lib_ril_sms.o)
 .debug_info    0x00000000000131a4      0xf1b libs/gcc/app_start.lib(stdlib_func.o)
 .debug_info    0x00000000000140bf      0x693 libs/gcc/app_start.lib(system.o)
 .debug_info    0x0000000000014752      0xd84 libs/gcc/app_start.lib(uart.o)
 .debug_info    0x00000000000154d6     0x100e libs/gcc/app_start.lib(socket.o)
 .debug_info    0x00000000000164e4      0x2c9 C:\CSDTK4\/mips-elf-4.4.2/lib/gcc/mips-elf/4.4.2/libgcc.a(_df_to_si.o)
 .debug_info    0x00000000000167ad      0x25d C:\CSDTK4\/mips-elf-4.4.2/lib/gcc/mips-elf/4.4.2/libgcc.a(_df_to_sf.o)
 .debug_info    0x0000000000016a0a      0x19b C:\CSDTK4\/mips-elf-4.4.2/lib/gcc/mips-elf/4.4.2/libgcc.a(_lshrdi3.o)
 .debug_info    0x0000000000016ba5      0x1d3 C:\CSDTK4\/mips-elf-4.4.2/lib/gcc/mips-elf/4.4.2/libgcc.a(_make_sf.o)
 .debug_info    0x0000000000016d78      0x266 C:\CSDTK4\/mips-elf-4.4.2/lib/gcc/mips-elf/4.4.2/libgcc.a(_unpack_df.o)
 .debug_info    0x0000000000016fde      0x2ea C:\CSDTK4\/mips-elf-4.4.2/lib/gcc/mips-elf/4.4.2/libgcc.a(_pack_sf.o)

.debug_line     0x0000000000000000     0x4e7a
 .debug_line    0x0000000000000000       0x8f build/gcc/obj/custom/config/custom_sys_cfg.o
 .debug_line    0x000000000000008f       0x7b build/gcc/obj/custom/config/sys_config.o
 .debug_line    0x000000000000010a      0x21d build/gcc/obj/ril/src/ril_audio.o
 .debug_line    0x0000000000000327       0x6e build/gcc/obj/ril/src/ril_custom.o
 .debug_line    0x0000000000000395      0x158 build/gcc/obj/ril/src/ril_http.o
 .debug_line    0x00000000000004ed      0x3d5 build/gcc/obj/ril/src/ril_urc.o
 .debug_line    0x00000000000008c2       0xad build/gcc/obj/ril/src/ril_atResponse.o
 .debug_line    0x000000000000096f      0x27d build/gcc/obj/ril/src/ril_network.o
 .debug_line    0x0000000000000bec      0x135 build/gcc/obj/ril/src/ril_location.o
 .debug_line    0x0000000000000d21       0xa4 build/gcc/obj/ril/src/ril_ntp.o
 .debug_line    0x0000000000000dc5      0x10a build/gcc/obj/ril/src/ril_telephony.o
 .debug_line    0x0000000000000ecf      0x40a build/gcc/obj/ril/src/ril_sms.o
 .debug_line    0x00000000000012d9      0x141 build/gcc/obj/ril/src/ril_system.o
 .debug_line    0x000000000000141a      0x157 build/gcc/obj/ril/src/Ril_dtmf.o
 .debug_line    0x0000000000001571      0x14c build/gcc/obj/ril/src/ril_sim.o
 .debug_line    0x00000000000016bd      0x16e build/gcc/obj/ril/src/ril_location2.o
 .debug_line    0x000000000000182b       0x69 build/gcc/obj/ril/src/ril_init.o
 .debug_line    0x0000000000001894      0x2ca build/gcc/obj/ril/src/ril_ftp.o
 .debug_line    0x0000000000001b5e      0x11e build/gcc/obj/ril/src/ril_alarm.o
 .debug_line    0x0000000000001c7c      0x154 build/gcc/obj/ril/src/ril_util.o
 .debug_line    0x0000000000001dd0      0x1f9 build/gcc/obj/ril/src/ril_mqtt.o
 .debug_line    0x0000000000001fc9        0x0 build/gcc/obj/example/example_location2.o
 .debug_line    0x0000000000001fc9        0x0 build/gcc/obj/example/example_dfota_ftp.o
 .debug_line    0x0000000000001fc9        0x0 build/gcc/obj/example/example_sms.o
 .debug_line    0x0000000000001fc9        0x0 build/gcc/obj/example/example_tcp_demo.o
 .debug_line    0x0000000000001fc9        0x0 build/gcc/obj/example/example_spi.o
 .debug_line    0x0000000000001fc9        0x0 build/gcc/obj/example/example_system.o
 .debug_line    0x0000000000001fc9      0x238 build/gcc/obj/example/example_tcpclient.o
 .debug_line    0x0000000000002201        0x0 build/gcc/obj/example/example_http.o
 .debug_line    0x0000000000002201        0x0 build/gcc/obj/example/example_dfota_http.o
 .debug_line    0x0000000000002201        0x0 build/gcc/obj/example/example_ftp.o
 .debug_line    0x0000000000002201        0x0 build/gcc/obj/example/example_float_math.o
 .debug_line    0x0000000000002201        0x0 build/gcc/obj/example/example_call.o
 .debug_line    0x0000000000002201        0x0 build/gcc/obj/example/example_memory.o
 .debug_line    0x0000000000002201        0x0 build/gcc/obj/example/example_udpserver.o
 .debug_line    0x0000000000002201        0x0 build/gcc/obj/example/example_multitask.o
 .debug_line    0x0000000000002201        0x0 build/gcc/obj/example/example_gpio.o
 .debug_line    0x0000000000002201        0x0 build/gcc/obj/example/example_adc.o
 .debug_line    0x0000000000002201       0xaa build/gcc/obj/example/debug.o
 .debug_line    0x00000000000022ab        0x0 build/gcc/obj/example/example_clk.o
 .debug_line    0x00000000000022ab        0x0 build/gcc/obj/example/example_transpass.o
 .debug_line    0x00000000000022ab        0x0 build/gcc/obj/example/example_alarm.o
 .debug_line    0x00000000000022ab        0x0 build/gcc/obj/example/example_multitask_port.o
 .debug_line    0x00000000000022ab        0x0 build/gcc/obj/example/example_time.o
 .debug_line    0x00000000000022ab        0x0 build/gcc/obj/example/example_watchdog.o
 .debug_line    0x00000000000022ab        0x0 build/gcc/obj/example/example_timer.o
 .debug_line    0x00000000000022ab        0x0 build/gcc/obj/example/example_udpclient.o
 .debug_line    0x00000000000022ab        0x0 build/gcc/obj/example/example_mqtt.o
 .debug_line    0x00000000000022ab        0x0 build/gcc/obj/example/example_audio.o
 .debug_line    0x00000000000022ab        0x0 build/gcc/obj/example/example_tcpserver.o
 .debug_line    0x00000000000022ab        0x0 build/gcc/obj/example/example_eint.o
 .debug_line    0x00000000000022ab        0x0 build/gcc/obj/example/example_file.o
 .debug_line    0x00000000000022ab        0x0 build/gcc/obj/example/example_iic.o
 .debug_line    0x00000000000022ab        0x0 build/gcc/obj/example/example_location.o
 .debug_line    0x00000000000022ab        0x0 build/gcc/obj/custom/main.o
 .debug_line    0x00000000000022ab       0xee build/gcc/obj/custom/dfota/src/dfota_main.o
 .debug_line    0x0000000000002399      0x227 build/gcc/obj/custom/dfota/src/dfota_ftp.o
 .debug_line    0x00000000000025c0      0x215 build/gcc/obj/custom/dfota/src/dfota_http_code.o
 .debug_line    0x00000000000027d5      0x394 build/gcc/obj/custom/dfota/src/dfota_http.o
 .debug_line    0x0000000000002b69       0xeb libs/gcc/app_start.lib(timer.o)
 .debug_line    0x0000000000002c54      0x18e libs/gcc/app_start.lib(gprs.o)
 .debug_line    0x0000000000002de2      0x19a libs/gcc/app_start.lib(ql_func.o)
 .debug_line    0x0000000000002f7c      0x20b libs/gcc/app_start.lib(taskMngt.o)
 .debug_line    0x0000000000003187       0xfe libs/gcc/app_start.lib(fota.o)
 .debug_line    0x0000000000003285      0x1b6 libs/gcc/app_start.lib(ql_main.o)
 .debug_line    0x000000000000343b       0xb2 libs/gcc/app_start.lib(memory.o)
 .debug_line    0x00000000000034ed      0x2cb libs/gcc/app_start.lib(ril_main.o)
 .debug_line    0x00000000000037b8       0x72 libs/gcc/app_start.lib(ril_aux.o)
 .debug_line    0x000000000000382a       0x68 libs/gcc/app_start.lib(ocpi_init.o)
 .debug_line    0x0000000000003892      0x2f6 libs/gcc/app_start.lib(fileSys.o)
 .debug_line    0x0000000000003b88      0x66f libs/gcc/app_start.lib(lib_ril_sms.o)
 .debug_line    0x00000000000041f7      0x306 libs/gcc/app_start.lib(stdlib_func.o)
 .debug_line    0x00000000000044fd      0x13b libs/gcc/app_start.lib(system.o)
 .debug_line    0x0000000000004638      0x221 libs/gcc/app_start.lib(uart.o)
 .debug_line    0x0000000000004859      0x25a libs/gcc/app_start.lib(socket.o)
 .debug_line    0x0000000000004ab3       0x9e C:\CSDTK4\/mips-elf-4.4.2/lib/gcc/mips-elf/4.4.2/libgcc.a(_df_to_si.o)
 .debug_line    0x0000000000004b51       0x97 C:\CSDTK4\/mips-elf-4.4.2/lib/gcc/mips-elf/4.4.2/libgcc.a(_df_to_sf.o)
 .debug_line    0x0000000000004be8       0x86 C:\CSDTK4\/mips-elf-4.4.2/lib/gcc/mips-elf/4.4.2/libgcc.a(_lshrdi3.o)
 .debug_line    0x0000000000004c6e       0x91 C:\CSDTK4\/mips-elf-4.4.2/lib/gcc/mips-elf/4.4.2/libgcc.a(_make_sf.o)
 .debug_line    0x0000000000004cff       0xb2 C:\CSDTK4\/mips-elf-4.4.2/lib/gcc/mips-elf/4.4.2/libgcc.a(_unpack_df.o)
 .debug_line    0x0000000000004db1       0xc9 C:\CSDTK4\/mips-elf-4.4.2/lib/gcc/mips-elf/4.4.2/libgcc.a(_pack_sf.o)

.debug_frame    0x0000000000000000     0x2f48
 .debug_frame   0x0000000000000000       0x20 build/gcc/obj/custom/config/custom_sys_cfg.o
 .debug_frame   0x0000000000000020      0x1d0 build/gcc/obj/ril/src/ril_audio.o
 .debug_frame   0x00000000000001f0       0x28 build/gcc/obj/ril/src/ril_custom.o
 .debug_frame   0x0000000000000218       0xc0 build/gcc/obj/ril/src/ril_http.o
 .debug_frame   0x00000000000002d8      0x2b8 build/gcc/obj/ril/src/ril_urc.o
 .debug_frame   0x0000000000000590       0x50 build/gcc/obj/ril/src/ril_atResponse.o
 .debug_frame   0x00000000000005e0      0x214 build/gcc/obj/ril/src/ril_network.o
 .debug_frame   0x00000000000007f4       0xb0 build/gcc/obj/ril/src/ril_location.o
 .debug_frame   0x00000000000008a4       0x50 build/gcc/obj/ril/src/ril_ntp.o
 .debug_frame   0x00000000000008f4       0xa0 build/gcc/obj/ril/src/ril_telephony.o
 .debug_frame   0x0000000000000994      0x1d8 build/gcc/obj/ril/src/ril_sms.o
 .debug_frame   0x0000000000000b6c       0xe8 build/gcc/obj/ril/src/ril_system.o
 .debug_frame   0x0000000000000c54      0x108 build/gcc/obj/ril/src/Ril_dtmf.o
 .debug_frame   0x0000000000000d5c       0xf0 build/gcc/obj/ril/src/ril_sim.o
 .debug_frame   0x0000000000000e4c       0xac build/gcc/obj/ril/src/ril_location2.o
 .debug_frame   0x0000000000000ef8       0x30 build/gcc/obj/ril/src/ril_init.o
 .debug_frame   0x0000000000000f28      0x244 build/gcc/obj/ril/src/ril_ftp.o
 .debug_frame   0x000000000000116c       0x90 build/gcc/obj/ril/src/ril_alarm.o
 .debug_frame   0x00000000000011fc       0xb0 build/gcc/obj/ril/src/ril_util.o
 .debug_frame   0x00000000000012ac      0x190 build/gcc/obj/ril/src/ril_mqtt.o
 .debug_frame   0x000000000000143c       0xe4 build/gcc/obj/example/example_tcpclient.o
 .debug_frame   0x0000000000001520       0x50 build/gcc/obj/example/debug.o
 .debug_frame   0x0000000000001570       0x48 build/gcc/obj/custom/dfota/src/dfota_main.o
 .debug_frame   0x00000000000015b8       0x70 build/gcc/obj/custom/dfota/src/dfota_ftp.o
 .debug_frame   0x0000000000001628       0x9c build/gcc/obj/custom/dfota/src/dfota_http_code.o
 .debug_frame   0x00000000000016c4      0x1b8 build/gcc/obj/custom/dfota/src/dfota_http.o
 .debug_frame   0x000000000000187c       0x90 libs/gcc/app_start.lib(timer.o)
 .debug_frame   0x000000000000190c      0x168 libs/gcc/app_start.lib(gprs.o)
 .debug_frame   0x0000000000001a74      0x160 libs/gcc/app_start.lib(ql_func.o)
 .debug_frame   0x0000000000001bd4      0x200 libs/gcc/app_start.lib(taskMngt.o)
 .debug_frame   0x0000000000001dd4       0xa8 libs/gcc/app_start.lib(fota.o)
 .debug_frame   0x0000000000001e7c       0x84 libs/gcc/app_start.lib(ql_main.o)
 .debug_frame   0x0000000000001f00       0x50 libs/gcc/app_start.lib(memory.o)
 .debug_frame   0x0000000000001f50      0x1a0 libs/gcc/app_start.lib(ril_main.o)
 .debug_frame   0x00000000000020f0       0x28 libs/gcc/app_start.lib(ril_aux.o)
 .debug_frame   0x0000000000002118       0x20 libs/gcc/app_start.lib(ocpi_init.o)
 .debug_frame   0x0000000000002138      0x350 libs/gcc/app_start.lib(fileSys.o)
 .debug_frame   0x0000000000002488      0x1d8 libs/gcc/app_start.lib(lib_ril_sms.o)
 .debug_frame   0x0000000000002660      0x298 libs/gcc/app_start.lib(stdlib_func.o)
 .debug_frame   0x00000000000028f8       0xec libs/gcc/app_start.lib(system.o)
 .debug_frame   0x00000000000029e4      0x210 libs/gcc/app_start.lib(uart.o)
 .debug_frame   0x0000000000002bf4      0x26c libs/gcc/app_start.lib(socket.o)
 .debug_frame   0x0000000000002e60       0x2c C:\CSDTK4\/mips-elf-4.4.2/lib/gcc/mips-elf/4.4.2/libgcc.a(_df_to_si.o)
 .debug_frame   0x0000000000002e8c       0x28 C:\CSDTK4\/mips-elf-4.4.2/lib/gcc/mips-elf/4.4.2/libgcc.a(_df_to_sf.o)
 .debug_frame   0x0000000000002eb4       0x2c C:\CSDTK4\/mips-elf-4.4.2/lib/gcc/mips-elf/4.4.2/libgcc.a(_lshrdi3.o)
 .debug_frame   0x0000000000002ee0       0x28 C:\CSDTK4\/mips-elf-4.4.2/lib/gcc/mips-elf/4.4.2/libgcc.a(_make_sf.o)
 .debug_frame   0x0000000000002f08       0x20 C:\CSDTK4\/mips-elf-4.4.2/lib/gcc/mips-elf/4.4.2/libgcc.a(_unpack_df.o)
 .debug_frame   0x0000000000002f28       0x20 C:\CSDTK4\/mips-elf-4.4.2/lib/gcc/mips-elf/4.4.2/libgcc.a(_pack_sf.o)

.debug_pubnames
                0x0000000000000000     0x2220
 .debug_pubnames
                0x0000000000000000       0x38 build/gcc/obj/custom/config/custom_sys_cfg.o
 .debug_pubnames
                0x0000000000000038       0x33 build/gcc/obj/custom/config/sys_config.o
 .debug_pubnames
                0x000000000000006b      0x167 build/gcc/obj/ril/src/ril_audio.o
 .debug_pubnames
                0x00000000000001d2       0x3f build/gcc/obj/ril/src/ril_custom.o
 .debug_pubnames
                0x0000000000000211       0xfd build/gcc/obj/ril/src/ril_http.o
 .debug_pubnames
                0x000000000000030e       0x6e build/gcc/obj/ril/src/ril_urc.o
 .debug_pubnames
                0x000000000000037c       0x5f build/gcc/obj/ril/src/ril_atResponse.o
 .debug_pubnames
                0x00000000000003db      0x11d build/gcc/obj/ril/src/ril_network.o
 .debug_pubnames
                0x00000000000004f8       0x76 build/gcc/obj/ril/src/ril_location.o
 .debug_pubnames
                0x000000000000056e       0x3c build/gcc/obj/ril/src/ril_ntp.o
 .debug_pubnames
                0x00000000000005aa       0x6c build/gcc/obj/ril/src/ril_telephony.o
 .debug_pubnames
                0x0000000000000616       0xd5 build/gcc/obj/ril/src/ril_sms.o
 .debug_pubnames
                0x00000000000006eb       0x65 build/gcc/obj/ril/src/ril_system.o
 .debug_pubnames
                0x0000000000000750       0xaa build/gcc/obj/ril/src/Ril_dtmf.o
 .debug_pubnames
                0x00000000000007fa       0x70 build/gcc/obj/ril/src/ril_sim.o
 .debug_pubnames
                0x000000000000086a       0x7f build/gcc/obj/ril/src/ril_location2.o
 .debug_pubnames
                0x00000000000008e9       0x62 build/gcc/obj/ril/src/ril_init.o
 .debug_pubnames
                0x000000000000094b      0x13a build/gcc/obj/ril/src/ril_ftp.o
 .debug_pubnames
                0x0000000000000a85       0x50 build/gcc/obj/ril/src/ril_alarm.o
 .debug_pubnames
                0x0000000000000ad5       0x86 build/gcc/obj/ril/src/ril_util.o
 .debug_pubnames
                0x0000000000000b5b       0xfe build/gcc/obj/ril/src/ril_mqtt.o
 .debug_pubnames
                0x0000000000000c59       0xc6 build/gcc/obj/example/example_tcpclient.o
 .debug_pubnames
                0x0000000000000d1f       0x39 build/gcc/obj/example/debug.o
 .debug_pubnames
                0x0000000000000d58       0xa0 build/gcc/obj/custom/dfota/src/dfota_main.o
 .debug_pubnames
                0x0000000000000df8       0x54 build/gcc/obj/custom/dfota/src/dfota_ftp.o
 .debug_pubnames
                0x0000000000000e4c       0xbc build/gcc/obj/custom/dfota/src/dfota_http_code.o
 .debug_pubnames
                0x0000000000000f08      0x234 build/gcc/obj/custom/dfota/src/dfota_http.o
 .debug_pubnames
                0x000000000000113c       0x67 libs/gcc/app_start.lib(timer.o)
 .debug_pubnames
                0x00000000000011a3      0x121 libs/gcc/app_start.lib(gprs.o)
 .debug_pubnames
                0x00000000000012c4      0x266 libs/gcc/app_start.lib(ql_func.o)
 .debug_pubnames
                0x000000000000152a      0x198 libs/gcc/app_start.lib(taskMngt.o)
 .debug_pubnames
                0x00000000000016c2       0x79 libs/gcc/app_start.lib(fota.o)
 .debug_pubnames
                0x000000000000173b       0xc7 libs/gcc/app_start.lib(ql_main.o)
 .debug_pubnames
                0x0000000000001802       0x33 libs/gcc/app_start.lib(memory.o)
 .debug_pubnames
                0x0000000000001835       0xb1 libs/gcc/app_start.lib(ril_main.o)
 .debug_pubnames
                0x00000000000018e6       0x4f libs/gcc/app_start.lib(ril_aux.o)
 .debug_pubnames
                0x0000000000001935       0x30 libs/gcc/app_start.lib(ocpi_init.o)
 .debug_pubnames
                0x0000000000001965      0x1f7 libs/gcc/app_start.lib(fileSys.o)
 .debug_pubnames
                0x0000000000001b5c       0xf3 libs/gcc/app_start.lib(lib_ril_sms.o)
 .debug_pubnames
                0x0000000000001c4f      0x153 libs/gcc/app_start.lib(stdlib_func.o)
 .debug_pubnames
                0x0000000000001da2       0x89 libs/gcc/app_start.lib(system.o)
 .debug_pubnames
                0x0000000000001e2b      0x183 libs/gcc/app_start.lib(uart.o)
 .debug_pubnames
                0x0000000000001fae      0x1af libs/gcc/app_start.lib(socket.o)
 .debug_pubnames
                0x000000000000215d       0x20 C:\CSDTK4\/mips-elf-4.4.2/lib/gcc/mips-elf/4.4.2/libgcc.a(_df_to_si.o)
 .debug_pubnames
                0x000000000000217d       0x23 C:\CSDTK4\/mips-elf-4.4.2/lib/gcc/mips-elf/4.4.2/libgcc.a(_df_to_sf.o)
 .debug_pubnames
                0x00000000000021a0       0x20 C:\CSDTK4\/mips-elf-4.4.2/lib/gcc/mips-elf/4.4.2/libgcc.a(_lshrdi3.o)
 .debug_pubnames
                0x00000000000021c0       0x20 C:\CSDTK4\/mips-elf-4.4.2/lib/gcc/mips-elf/4.4.2/libgcc.a(_make_sf.o)
 .debug_pubnames
                0x00000000000021e0       0x21 C:\CSDTK4\/mips-elf-4.4.2/lib/gcc/mips-elf/4.4.2/libgcc.a(_unpack_df.o)
 .debug_pubnames
                0x0000000000002201       0x1f C:\CSDTK4\/mips-elf-4.4.2/lib/gcc/mips-elf/4.4.2/libgcc.a(_pack_sf.o)

.debug_aranges  0x0000000000000000     0x1070
 .debug_aranges
                0x0000000000000000       0x20 build/gcc/obj/custom/config/custom_sys_cfg.o
 .debug_aranges
                0x0000000000000020       0x90 build/gcc/obj/ril/src/ril_audio.o
 .debug_aranges
                0x00000000000000b0       0x20 build/gcc/obj/ril/src/ril_custom.o
 .debug_aranges
                0x00000000000000d0       0x48 build/gcc/obj/ril/src/ril_http.o
 .debug_aranges
                0x0000000000000118       0xc8 build/gcc/obj/ril/src/ril_urc.o
 .debug_aranges
                0x00000000000001e0       0x30 build/gcc/obj/ril/src/ril_atResponse.o
 .debug_aranges
                0x0000000000000210       0xa0 build/gcc/obj/ril/src/ril_network.o
 .debug_aranges
                0x00000000000002b0       0x40 build/gcc/obj/ril/src/ril_location.o
 .debug_aranges
                0x00000000000002f0       0x28 build/gcc/obj/ril/src/ril_ntp.o
 .debug_aranges
                0x0000000000000318       0x40 build/gcc/obj/ril/src/ril_telephony.o
 .debug_aranges
                0x0000000000000358       0x90 build/gcc/obj/ril/src/ril_sms.o
 .debug_aranges
                0x00000000000003e8       0x50 build/gcc/obj/ril/src/ril_system.o
 .debug_aranges
                0x0000000000000438       0x58 build/gcc/obj/ril/src/Ril_dtmf.o
 .debug_aranges
                0x0000000000000490       0x50 build/gcc/obj/ril/src/ril_sim.o
 .debug_aranges
                0x00000000000004e0       0x40 build/gcc/obj/ril/src/ril_location2.o
 .debug_aranges
                0x0000000000000520       0x28 build/gcc/obj/ril/src/ril_init.o
 .debug_aranges
                0x0000000000000548       0xa8 build/gcc/obj/ril/src/ril_ftp.o
 .debug_aranges
                0x00000000000005f0       0x38 build/gcc/obj/ril/src/ril_alarm.o
 .debug_aranges
                0x0000000000000628       0x48 build/gcc/obj/ril/src/ril_util.o
 .debug_aranges
                0x0000000000000670       0x78 build/gcc/obj/ril/src/ril_mqtt.o
 .debug_aranges
                0x00000000000006e8       0x50 build/gcc/obj/example/example_tcpclient.o
 .debug_aranges
                0x0000000000000738       0x28 build/gcc/obj/example/debug.o
 .debug_aranges
                0x0000000000000760       0x28 build/gcc/obj/custom/dfota/src/dfota_main.o
 .debug_aranges
                0x0000000000000788       0x30 build/gcc/obj/custom/dfota/src/dfota_ftp.o
 .debug_aranges
                0x00000000000007b8       0x40 build/gcc/obj/custom/dfota/src/dfota_http_code.o
 .debug_aranges
                0x00000000000007f8       0xa0 build/gcc/obj/custom/dfota/src/dfota_http.o
 .debug_aranges
                0x0000000000000898       0x38 libs/gcc/app_start.lib(timer.o)
 .debug_aranges
                0x00000000000008d0       0x70 libs/gcc/app_start.lib(gprs.o)
 .debug_aranges
                0x0000000000000940       0x70 libs/gcc/app_start.lib(ql_func.o)
 .debug_aranges
                0x00000000000009b0       0x98 libs/gcc/app_start.lib(taskMngt.o)
 .debug_aranges
                0x0000000000000a48       0x40 libs/gcc/app_start.lib(fota.o)
 .debug_aranges
                0x0000000000000a88       0x38 libs/gcc/app_start.lib(ql_main.o)
 .debug_aranges
                0x0000000000000ac0       0x28 libs/gcc/app_start.lib(memory.o)
 .debug_aranges
                0x0000000000000ae8       0x98 libs/gcc/app_start.lib(ril_main.o)
 .debug_aranges
                0x0000000000000b80       0x20 libs/gcc/app_start.lib(ril_aux.o)
 .debug_aranges
                0x0000000000000ba0       0x20 libs/gcc/app_start.lib(ocpi_init.o)
 .debug_aranges
                0x0000000000000bc0       0xe8 libs/gcc/app_start.lib(fileSys.o)
 .debug_aranges
                0x0000000000000ca8       0xa0 libs/gcc/app_start.lib(lib_ril_sms.o)
 .debug_aranges
                0x0000000000000d48       0xc8 libs/gcc/app_start.lib(stdlib_func.o)
 .debug_aranges
                0x0000000000000e10       0x50 libs/gcc/app_start.lib(system.o)
 .debug_aranges
                0x0000000000000e60       0xa0 libs/gcc/app_start.lib(uart.o)
 .debug_aranges
                0x0000000000000f00       0xb0 libs/gcc/app_start.lib(socket.o)
 .debug_aranges
                0x0000000000000fb0       0x20 C:\CSDTK4\/mips-elf-4.4.2/lib/gcc/mips-elf/4.4.2/libgcc.a(_df_to_si.o)
 .debug_aranges
                0x0000000000000fd0       0x20 C:\CSDTK4\/mips-elf-4.4.2/lib/gcc/mips-elf/4.4.2/libgcc.a(_df_to_sf.o)
 .debug_aranges
                0x0000000000000ff0       0x20 C:\CSDTK4\/mips-elf-4.4.2/lib/gcc/mips-elf/4.4.2/libgcc.a(_lshrdi3.o)
 .debug_aranges
                0x0000000000001010       0x20 C:\CSDTK4\/mips-elf-4.4.2/lib/gcc/mips-elf/4.4.2/libgcc.a(_make_sf.o)
 .debug_aranges
                0x0000000000001030       0x20 C:\CSDTK4\/mips-elf-4.4.2/lib/gcc/mips-elf/4.4.2/libgcc.a(_unpack_df.o)
 .debug_aranges
                0x0000000000001050       0x20 C:\CSDTK4\/mips-elf-4.4.2/lib/gcc/mips-elf/4.4.2/libgcc.a(_pack_sf.o)

.debug_ranges   0x0000000000000000     0x1328
 .debug_ranges  0x0000000000000000       0x18 build/gcc/obj/custom/config/custom_sys_cfg.o
 .debug_ranges  0x0000000000000018       0x88 build/gcc/obj/ril/src/ril_audio.o
 .debug_ranges  0x00000000000000a0       0x18 build/gcc/obj/ril/src/ril_custom.o
 .debug_ranges  0x00000000000000b8       0x40 build/gcc/obj/ril/src/ril_http.o
 .debug_ranges  0x00000000000000f8       0xc0 build/gcc/obj/ril/src/ril_urc.o
 .debug_ranges  0x00000000000001b8       0x28 build/gcc/obj/ril/src/ril_atResponse.o
 .debug_ranges  0x00000000000001e0       0x98 build/gcc/obj/ril/src/ril_network.o
 .debug_ranges  0x0000000000000278       0x38 build/gcc/obj/ril/src/ril_location.o
 .debug_ranges  0x00000000000002b0       0x20 build/gcc/obj/ril/src/ril_ntp.o
 .debug_ranges  0x00000000000002d0       0x38 build/gcc/obj/ril/src/ril_telephony.o
 .debug_ranges  0x0000000000000308      0x1e8 build/gcc/obj/ril/src/ril_sms.o
 .debug_ranges  0x00000000000004f0       0x48 build/gcc/obj/ril/src/ril_system.o
 .debug_ranges  0x0000000000000538       0x50 build/gcc/obj/ril/src/Ril_dtmf.o
 .debug_ranges  0x0000000000000588       0x48 build/gcc/obj/ril/src/ril_sim.o
 .debug_ranges  0x00000000000005d0       0x38 build/gcc/obj/ril/src/ril_location2.o
 .debug_ranges  0x0000000000000608       0x20 build/gcc/obj/ril/src/ril_init.o
 .debug_ranges  0x0000000000000628       0xa0 build/gcc/obj/ril/src/ril_ftp.o
 .debug_ranges  0x00000000000006c8       0x30 build/gcc/obj/ril/src/ril_alarm.o
 .debug_ranges  0x00000000000006f8       0x40 build/gcc/obj/ril/src/ril_util.o
 .debug_ranges  0x0000000000000738       0x70 build/gcc/obj/ril/src/ril_mqtt.o
 .debug_ranges  0x00000000000007a8       0x48 build/gcc/obj/example/example_tcpclient.o
 .debug_ranges  0x00000000000007f0       0x20 build/gcc/obj/example/debug.o
 .debug_ranges  0x0000000000000810       0x20 build/gcc/obj/custom/dfota/src/dfota_main.o
 .debug_ranges  0x0000000000000830       0x28 build/gcc/obj/custom/dfota/src/dfota_ftp.o
 .debug_ranges  0x0000000000000858       0xb8 build/gcc/obj/custom/dfota/src/dfota_http_code.o
 .debug_ranges  0x0000000000000910       0x98 build/gcc/obj/custom/dfota/src/dfota_http.o
 .debug_ranges  0x00000000000009a8       0x30 libs/gcc/app_start.lib(timer.o)
 .debug_ranges  0x00000000000009d8       0x68 libs/gcc/app_start.lib(gprs.o)
 .debug_ranges  0x0000000000000a40       0x68 libs/gcc/app_start.lib(ql_func.o)
 .debug_ranges  0x0000000000000aa8       0x90 libs/gcc/app_start.lib(taskMngt.o)
 .debug_ranges  0x0000000000000b38       0x38 libs/gcc/app_start.lib(fota.o)
 .debug_ranges  0x0000000000000b70       0x30 libs/gcc/app_start.lib(ql_main.o)
 .debug_ranges  0x0000000000000ba0       0x20 libs/gcc/app_start.lib(memory.o)
 .debug_ranges  0x0000000000000bc0       0xa8 libs/gcc/app_start.lib(ril_main.o)
 .debug_ranges  0x0000000000000c68       0x18 libs/gcc/app_start.lib(ril_aux.o)
 .debug_ranges  0x0000000000000c80       0x18 libs/gcc/app_start.lib(ocpi_init.o)
 .debug_ranges  0x0000000000000c98       0xe0 libs/gcc/app_start.lib(fileSys.o)
 .debug_ranges  0x0000000000000d78      0x368 libs/gcc/app_start.lib(lib_ril_sms.o)
 .debug_ranges  0x00000000000010e0       0xc0 libs/gcc/app_start.lib(stdlib_func.o)
 .debug_ranges  0x00000000000011a0       0x48 libs/gcc/app_start.lib(system.o)
 .debug_ranges  0x00000000000011e8       0x98 libs/gcc/app_start.lib(uart.o)
 .debug_ranges  0x0000000000001280       0xa8 libs/gcc/app_start.lib(socket.o)

.debug_str      0x0000000000000000     0x8343
 .debug_str     0x0000000000000000      0x36f build/gcc/obj/custom/config/custom_sys_cfg.o
                                        0x392 (size before relaxing)
 .debug_str     0x000000000000036f      0x16a build/gcc/obj/custom/config/sys_config.o
                                        0x322 (size before relaxing)
 .debug_str     0x00000000000004d9      0xdde build/gcc/obj/ril/src/ril_audio.o
                                        0xee0 (size before relaxing)
 .debug_str     0x00000000000012b7       0x69 build/gcc/obj/ril/src/ril_custom.o
                                        0x13a (size before relaxing)
 .debug_str     0x0000000000001320      0x1c3 build/gcc/obj/ril/src/ril_http.o
                                        0x391 (size before relaxing)
 .debug_str     0x00000000000014e3      0x5f7 build/gcc/obj/ril/src/ril_urc.o
                                        0x787 (size before relaxing)
 .debug_str     0x0000000000001ada       0x65 build/gcc/obj/ril/src/ril_atResponse.o
                                        0x18c (size before relaxing)
 .debug_str     0x0000000000001b3f      0x298 build/gcc/obj/ril/src/ril_network.o
                                        0x46a (size before relaxing)
 .debug_str     0x0000000000001dd7      0x101 build/gcc/obj/ril/src/ril_location.o
                                        0x2bf (size before relaxing)
 .debug_str     0x0000000000001ed8       0x7c build/gcc/obj/ril/src/ril_ntp.o
                                        0x1d0 (size before relaxing)
 .debug_str     0x0000000000001f54       0x8b build/gcc/obj/ril/src/ril_telephony.o
                                        0x28e (size before relaxing)
 .debug_str     0x0000000000001fdf      0xbae build/gcc/obj/ril/src/ril_sms.o
                                        0xd62 (size before relaxing)
 .debug_str     0x0000000000002b8d      0x100 build/gcc/obj/ril/src/ril_system.o
                                        0x2b9 (size before relaxing)
 .debug_str     0x0000000000002c8d      0x272 build/gcc/obj/ril/src/Ril_dtmf.o
                                        0x425 (size before relaxing)
 .debug_str     0x0000000000002eff      0x196 build/gcc/obj/ril/src/ril_sim.o
                                        0x354 (size before relaxing)
 .debug_str     0x0000000000003095      0x1ca build/gcc/obj/ril/src/ril_location2.o
                                        0x3ea (size before relaxing)
 .debug_str     0x000000000000325f       0x53 build/gcc/obj/ril/src/ril_init.o
                                        0x124 (size before relaxing)
 .debug_str     0x00000000000032b2      0x251 build/gcc/obj/ril/src/ril_ftp.o
                                        0xea6 (size before relaxing)
 .debug_str     0x0000000000003503       0xa8 build/gcc/obj/ril/src/ril_alarm.o
                                        0xc0e (size before relaxing)
 .debug_str     0x00000000000035ab       0xae build/gcc/obj/ril/src/ril_util.o
                                        0x1a7 (size before relaxing)
 .debug_str     0x0000000000003659      0x2d5 build/gcc/obj/ril/src/ril_mqtt.o
                                        0x49f (size before relaxing)
 .debug_str     0x000000000000392e      0x680 build/gcc/obj/example/example_tcpclient.o
                                        0x8b8 (size before relaxing)
 .debug_str     0x0000000000003fae       0x92 build/gcc/obj/example/debug.o
                                        0x1e9 (size before relaxing)
 .debug_str     0x0000000000004040      0x23e build/gcc/obj/custom/dfota/src/dfota_main.o
                                        0x3d5 (size before relaxing)
 .debug_str     0x000000000000427e      0x1a3 build/gcc/obj/custom/dfota/src/dfota_ftp.o
                                        0xec4 (size before relaxing)
 .debug_str     0x0000000000004421      0x73a build/gcc/obj/custom/dfota/src/dfota_http_code.o
                                        0x8f9 (size before relaxing)
 .debug_str     0x0000000000004b5b      0x3a5 build/gcc/obj/custom/dfota/src/dfota_http.o
                                        0xbf2 (size before relaxing)
 .debug_str     0x0000000000004f00      0x190 libs/gcc/app_start.lib(timer.o)
                                        0xc47 (size before relaxing)
 .debug_str     0x0000000000005090      0x2e0 libs/gcc/app_start.lib(gprs.o)
                                        0xe96 (size before relaxing)
 .debug_str     0x0000000000005370      0x3cc libs/gcc/app_start.lib(ql_func.o)
                                        0xf56 (size before relaxing)
 .debug_str     0x000000000000573c      0x462 libs/gcc/app_start.lib(taskMngt.o)
                                        0xfa5 (size before relaxing)
 .debug_str     0x0000000000005b9e      0x12b libs/gcc/app_start.lib(fota.o)
                                        0xca6 (size before relaxing)
 .debug_str     0x0000000000005cc9      0x256 libs/gcc/app_start.lib(ql_main.o)
                                        0x6a9 (size before relaxing)
 .debug_str     0x0000000000005f1f       0x66 libs/gcc/app_start.lib(memory.o)
                                        0x16b (size before relaxing)
 .debug_str     0x0000000000005f85      0x3c9 libs/gcc/app_start.lib(ril_main.o)
                                       0x1162 (size before relaxing)
 .debug_str     0x000000000000634e       0x24 libs/gcc/app_start.lib(ril_aux.o)
                                        0x16c (size before relaxing)
 .debug_str     0x0000000000006372       0x7d libs/gcc/app_start.lib(ocpi_init.o)
                                        0x13a (size before relaxing)
 .debug_str     0x00000000000063ef      0x5c4 libs/gcc/app_start.lib(fileSys.o)
                                       0x10ef (size before relaxing)
 .debug_str     0x00000000000069b3      0xa1c libs/gcc/app_start.lib(lib_ril_sms.o)
                                        0xfe8 (size before relaxing)
 .debug_str     0x00000000000073cf      0x2d1 libs/gcc/app_start.lib(stdlib_func.o)
                                        0xe43 (size before relaxing)
 .debug_str     0x00000000000076a0      0x122 libs/gcc/app_start.lib(system.o)
                                        0xc45 (size before relaxing)
 .debug_str     0x00000000000077c2      0x46a libs/gcc/app_start.lib(uart.o)
                                       0x11c4 (size before relaxing)
 .debug_str     0x0000000000007c2c      0x4dc libs/gcc/app_start.lib(socket.o)
                                       0x1115 (size before relaxing)
 .debug_str     0x0000000000008108      0x141 C:\CSDTK4\/mips-elf-4.4.2/lib/gcc/mips-elf/4.4.2/libgcc.a(_df_to_si.o)
                                        0x1c9 (size before relaxing)
 .debug_str     0x0000000000008249       0x1b C:\CSDTK4\/mips-elf-4.4.2/lib/gcc/mips-elf/4.4.2/libgcc.a(_df_to_sf.o)
                                        0x1c0 (size before relaxing)
 .debug_str     0x0000000000008264       0x8b C:\CSDTK4\/mips-elf-4.4.2/lib/gcc/mips-elf/4.4.2/libgcc.a(_lshrdi3.o)
                                        0x180 (size before relaxing)
 .debug_str     0x00000000000082ef       0x33 C:\CSDTK4\/mips-elf-4.4.2/lib/gcc/mips-elf/4.4.2/libgcc.a(_make_sf.o)
                                        0x17b (size before relaxing)
 .debug_str     0x0000000000008322        0xb C:\CSDTK4\/mips-elf-4.4.2/lib/gcc/mips-elf/4.4.2/libgcc.a(_unpack_df.o)
                                        0x1aa (size before relaxing)
 .debug_str     0x000000000000832d       0x16 C:\CSDTK4\/mips-elf-4.4.2/lib/gcc/mips-elf/4.4.2/libgcc.a(_pack_sf.o)
                                        0x1c2 (size before relaxing)

.debug_loc      0x0000000000000000     0xf7d4
 .debug_loc     0x0000000000000000      0x63b build/gcc/obj/ril/src/ril_audio.o
 .debug_loc     0x000000000000063b       0x79 build/gcc/obj/ril/src/ril_custom.o
 .debug_loc     0x00000000000006b4      0x420 build/gcc/obj/ril/src/ril_http.o
 .debug_loc     0x0000000000000ad4      0xb78 build/gcc/obj/ril/src/ril_urc.o
 .debug_loc     0x000000000000164c       0x79 build/gcc/obj/ril/src/ril_atResponse.o
 .debug_loc     0x00000000000016c5      0x8e1 build/gcc/obj/ril/src/ril_network.o
 .debug_loc     0x0000000000001fa6      0x2b2 build/gcc/obj/ril/src/ril_location.o
 .debug_loc     0x0000000000002258      0x114 build/gcc/obj/ril/src/ril_ntp.o
 .debug_loc     0x000000000000236c      0x250 build/gcc/obj/ril/src/ril_telephony.o
 .debug_loc     0x00000000000025bc     0x12e4 build/gcc/obj/ril/src/ril_sms.o
 .debug_loc     0x00000000000038a0      0x62b build/gcc/obj/ril/src/ril_system.o
 .debug_loc     0x0000000000003ecb      0x4e9 build/gcc/obj/ril/src/Ril_dtmf.o
 .debug_loc     0x00000000000043b4      0x4aa build/gcc/obj/ril/src/ril_sim.o
 .debug_loc     0x000000000000485e      0x379 build/gcc/obj/ril/src/ril_location2.o
 .debug_loc     0x0000000000004bd7      0x9f9 build/gcc/obj/ril/src/ril_ftp.o
 .debug_loc     0x00000000000055d0      0x33e build/gcc/obj/ril/src/ril_alarm.o
 .debug_loc     0x000000000000590e      0x3c3 build/gcc/obj/ril/src/ril_util.o
 .debug_loc     0x0000000000005cd1      0x78b build/gcc/obj/ril/src/ril_mqtt.o
 .debug_loc     0x000000000000645c      0x464 build/gcc/obj/example/example_tcpclient.o
 .debug_loc     0x00000000000068c0      0x2de build/gcc/obj/example/debug.o
 .debug_loc     0x0000000000006b9e      0x142 build/gcc/obj/custom/dfota/src/dfota_main.o
 .debug_loc     0x0000000000006ce0      0x479 build/gcc/obj/custom/dfota/src/dfota_ftp.o
 .debug_loc     0x0000000000007159      0x497 build/gcc/obj/custom/dfota/src/dfota_http_code.o
 .debug_loc     0x00000000000075f0      0x6b3 build/gcc/obj/custom/dfota/src/dfota_http.o
 .debug_loc     0x0000000000007ca3      0x220 libs/gcc/app_start.lib(timer.o)
 .debug_loc     0x0000000000007ec3      0x4d9 libs/gcc/app_start.lib(gprs.o)
 .debug_loc     0x000000000000839c      0x53a libs/gcc/app_start.lib(ql_func.o)
 .debug_loc     0x00000000000088d6      0x60a libs/gcc/app_start.lib(taskMngt.o)
 .debug_loc     0x0000000000008ee0      0x1e5 libs/gcc/app_start.lib(fota.o)
 .debug_loc     0x00000000000090c5      0x3ee libs/gcc/app_start.lib(ql_main.o)
 .debug_loc     0x00000000000094b3       0xb6 libs/gcc/app_start.lib(memory.o)
 .debug_loc     0x0000000000009569      0x6ac libs/gcc/app_start.lib(ril_main.o)
 .debug_loc     0x0000000000009c15       0x32 libs/gcc/app_start.lib(ril_aux.o)
 .debug_loc     0x0000000000009c47      0xc68 libs/gcc/app_start.lib(fileSys.o)
 .debug_loc     0x000000000000a8af     0x2b4c libs/gcc/app_start.lib(lib_ril_sms.o)
 .debug_loc     0x000000000000d3fb      0xa9a libs/gcc/app_start.lib(stdlib_func.o)
 .debug_loc     0x000000000000de95      0x32a libs/gcc/app_start.lib(system.o)
 .debug_loc     0x000000000000e1bf      0x7ad libs/gcc/app_start.lib(uart.o)
 .debug_loc     0x000000000000e96c      0xab6 libs/gcc/app_start.lib(socket.o)
 .debug_loc     0x000000000000f422       0x6b C:\CSDTK4\/mips-elf-4.4.2/lib/gcc/mips-elf/4.4.2/libgcc.a(_df_to_si.o)
 .debug_loc     0x000000000000f48d       0x60 C:\CSDTK4\/mips-elf-4.4.2/lib/gcc/mips-elf/4.4.2/libgcc.a(_df_to_sf.o)
 .debug_loc     0x000000000000f4ed       0xbd C:\CSDTK4\/mips-elf-4.4.2/lib/gcc/mips-elf/4.4.2/libgcc.a(_lshrdi3.o)
 .debug_loc     0x000000000000f5aa       0x6b C:\CSDTK4\/mips-elf-4.4.2/lib/gcc/mips-elf/4.4.2/libgcc.a(_make_sf.o)
 .debug_loc     0x000000000000f615       0xef C:\CSDTK4\/mips-elf-4.4.2/lib/gcc/mips-elf/4.4.2/libgcc.a(_unpack_df.o)
 .debug_loc     0x000000000000f704       0xd0 C:\CSDTK4\/mips-elf-4.4.2/lib/gcc/mips-elf/4.4.2/libgcc.a(_pack_sf.o)
